

Microchip MPLAB XC8 Assembler V2.05 build -831301201 
                                                                                               Thu Mar 25 12:19:38 2021

Microchip MPLAB XC8 C Compiler v2.05 (Free license) build 20181220022703 Og1 
     1                           	processor	16LF18856
     2                           	opt	pw 120
     3                           	opt	flic
     4                           	psect	stringtext1,global,class=STRCODE,delta=2
     5                           	psect	nvBANK0,global,class=BANK0,space=1,delta=1
     6                           	psect	stringtext2,global,class=STRCODE,delta=2
     7                           	psect	stringtext3,global,class=STRCODE,delta=2
     8                           	psect	stringtext4,global,class=STRCODE,delta=2
     9                           	psect	stringtext5,global,class=STRCODE,delta=2
    10                           	psect	stringtext6,global,class=STRCODE,delta=2
    11                           	psect	stringtext7,global,class=STRCODE,delta=2
    12                           	psect	stringtext8,global,class=STRCODE,delta=2
    13                           	psect	stringtext9,global,class=STRCODE,delta=2
    14                           	psect	stringtext10,global,class=STRCODE,delta=2
    15                           	psect	stringtext11,global,class=STRCODE,delta=2
    16                           	psect	stringtext12,global,class=STRCODE,delta=2
    17                           	psect	stringtext13,global,class=STRCODE,delta=2
    18                           	psect	stringtext14,global,class=STRCODE,delta=2
    19                           	psect	stringtext15,global,class=STRCODE,delta=2
    20                           	psect	stringtext16,global,class=STRCODE,delta=2
    21                           	psect	stringtext17,global,class=STRCODE,delta=2
    22                           	psect	stringtext18,global,class=STRCODE,delta=2
    23                           	psect	cinit,global,class=CODE,merge=1,delta=2
    24                           	psect	bssBANK0,global,class=BANK0,space=1,delta=1
    25                           	psect	bssBANK2,global,class=BANK2,space=1,delta=1
    26                           	psect	clrtext,global,class=CODE,delta=2
    27                           	psect	cstackBANK1,global,class=BANK1,space=1,delta=1
    28                           	psect	cstackCOMMON,global,class=COMMON,space=1,delta=1
    29                           	psect	cstackBANK0,global,class=BANK0,space=1,delta=1
    30                           	psect	maintext,global,class=CODE,merge=1,split=1,delta=2
    31                           	psect	text1,local,class=CODE,merge=1,delta=2
    32                           	psect	text2,local,class=CODE,merge=1,delta=2
    33                           	psect	text3,local,class=CODE,merge=1,delta=2
    34                           	psect	text4,local,class=CODE,merge=1,delta=2,group=1
    35                           	psect	text5,local,class=CODE,merge=1,delta=2,group=1
    36                           	psect	text6,local,class=CODE,merge=1,delta=2,group=1
    37                           	psect	text7,local,class=CODE,merge=1,delta=2,group=1
    38                           	psect	text8,local,class=CODE,merge=1,delta=2
    39                           	psect	text9,local,class=CODE,merge=1,delta=2
    40                           	psect	text10,local,class=CODE,merge=1,delta=2
    41                           	psect	text11,local,class=CODE,merge=1,delta=2
    42                           	psect	text12,local,class=CODE,merge=1,delta=2
    43                           	psect	text13,local,class=CODE,merge=1,delta=2
    44                           	psect	text14,local,class=CODE,merge=1,delta=2
    45                           	dabs	1,0xCA0,32
    46                           	dabs	1,0xC20,80
    47                           	dabs	1,0xBA0,80
    48                           	dabs	1,0xB2F,65
    49                           	dabs	1,0x26EF,0,_ldra_message
    50                           	dabs	1,0x7E,2
    51  0000                     
    52                           ; Version 2.05
    53                           ; Generated 20/12/2018 GMT
    54                           ; 
    55                           ; Copyright © 2018, Microchip Technology Inc. and its subsidiaries ("Microchip")
    56                           ; All rights reserved.
    57                           ; 
    58                           ; This software is developed by Microchip Technology Inc. and its subsidiaries ("Microch
      +                          ip").
    59                           ; 
    60                           ; Redistribution and use in source and binary forms, with or without modification, are
    61                           ; permitted provided that the following conditions are met:
    62                           ; 
    63                           ;     1. Redistributions of source code must retain the above copyright notice, this lis
      +                          t of
    64                           ;        conditions and the following disclaimer.
    65                           ; 
    66                           ;     2. Redistributions in binary form must reproduce the above copyright notice, this 
      +                          list
    67                           ;        of conditions and the following disclaimer in the documentation and/or other
    68                           ;        materials provided with the distribution.
    69                           ; 
    70                           ;     3. Microchip's name may not be used to endorse or promote products derived from th
      +                          is
    71                           ;        software without specific prior written permission.
    72                           ; 
    73                           ; THIS SOFTWARE IS PROVIDED BY MICROCHIP "AS IS" AND ANY EXPRESS OR IMPLIED WARRANTIES,
    74                           ; INCLUDING, BUT NOT LIMITED TO, THE IMPLIED WARRANTIES OF MERCHANTABILITY AND FITNESS F
      +                          OR
    75                           ; PURPOSE ARE DISCLAIMED.  IN NO EVENT SHALL MICROCHIP BE LIABLE FOR ANY DIRECT, INDIREC
      +                          T,
    76                           ; INCIDENTAL, SPECIAL, EXEMPLARY, OR CONSEQUENTIAL DAMAGES (INCLUDING BUT NOT LIMITED TO
    77                           ; PROCUREMENT OF SUBSTITUTE GOODS OR SERVICES; LOSS OF USE, DATA OR PROFITS; OR BUSINESS
    78                           ; INTERRUPTION) HOWSOEVER CAUSED AND ON ANY THEORY OF LIABILITY, WHETHER IN CONTRACT, ST
      +                          RICT
    79                           ; LIABILITY, OR TORT (INCLUDING NEGLIGENCE OR OTHERWISE) ARISING IN ANY WAY OUT OF THE U
      +                          SE OF
    80                           ; THIS SOFTWARE, EVEN IF ADVISED OF THE POSSIBILITY OF SUCH DAMAGE.
    81                           ; 
    82                           ; 
    83                           ; Code-generator required, PIC16LF18856 Definitions
    84                           ; 
    85                           ; SFR Addresses
    86  0000                     	;# 
    87  0001                     	;# 
    88  0002                     	;# 
    89  0003                     	;# 
    90  0004                     	;# 
    91  0005                     	;# 
    92  0006                     	;# 
    93  0007                     	;# 
    94  0008                     	;# 
    95  0009                     	;# 
    96  000A                     	;# 
    97  000B                     	;# 
    98  000C                     	;# 
    99  000D                     	;# 
   100  000E                     	;# 
   101  0010                     	;# 
   102  0011                     	;# 
   103  0012                     	;# 
   104  0013                     	;# 
   105  0016                     	;# 
   106  0017                     	;# 
   107  0018                     	;# 
   108  001C                     	;# 
   109  001C                     	;# 
   110  001D                     	;# 
   111  001D                     	;# 
   112  001E                     	;# 
   113  001F                     	;# 
   114  008C                     	;# 
   115  008C                     	;# 
   116  008D                     	;# 
   117  008E                     	;# 
   118  008E                     	;# 
   119  008F                     	;# 
   120  0090                     	;# 
   121  0090                     	;# 
   122  0091                     	;# 
   123  0093                     	;# 
   124  0094                     	;# 
   125  0095                     	;# 
   126  0096                     	;# 
   127  0097                     	;# 
   128  0098                     	;# 
   129  0099                     	;# 
   130  009A                     	;# 
   131  009B                     	;# 
   132  009C                     	;# 
   133  009D                     	;# 
   134  009E                     	;# 
   135  010C                     	;# 
   136  010D                     	;# 
   137  010E                     	;# 
   138  010E                     	;# 
   139  010F                     	;# 
   140  0110                     	;# 
   141  0110                     	;# 
   142  0111                     	;# 
   143  0112                     	;# 
   144  0112                     	;# 
   145  0113                     	;# 
   146  0114                     	;# 
   147  0114                     	;# 
   148  0115                     	;# 
   149  0116                     	;# 
   150  0116                     	;# 
   151  0117                     	;# 
   152  0119                     	;# 
   153  0119                     	;# 
   154  0119                     	;# 
   155  011A                     	;# 
   156  011A                     	;# 
   157  011A                     	;# 
   158  011B                     	;# 
   159  011B                     	;# 
   160  011B                     	;# 
   161  011B                     	;# 
   162  011B                     	;# 
   163  011C                     	;# 
   164  011C                     	;# 
   165  011C                     	;# 
   166  011D                     	;# 
   167  011D                     	;# 
   168  011D                     	;# 
   169  011E                     	;# 
   170  011E                     	;# 
   171  011E                     	;# 
   172  011F                     	;# 
   173  011F                     	;# 
   174  011F                     	;# 
   175  011F                     	;# 
   176  011F                     	;# 
   177  018C                     	;# 
   178  018D                     	;# 
   179  018E                     	;# 
   180  018F                     	;# 
   181  0190                     	;# 
   182  0191                     	;# 
   183  0192                     	;# 
   184  0196                     	;# 
   185  0197                     	;# 
   186  0198                     	;# 
   187  0199                     	;# 
   188  019A                     	;# 
   189  019B                     	;# 
   190  019C                     	;# 
   191  020C                     	;# 
   192  020C                     	;# 
   193  020D                     	;# 
   194  020E                     	;# 
   195  020F                     	;# 
   196  020F                     	;# 
   197  0210                     	;# 
   198  0210                     	;# 
   199  0211                     	;# 
   200  0211                     	;# 
   201  0212                     	;# 
   202  0212                     	;# 
   203  0213                     	;# 
   204  0214                     	;# 
   205  0215                     	;# 
   206  0215                     	;# 
   207  0216                     	;# 
   208  0216                     	;# 
   209  0217                     	;# 
   210  0217                     	;# 
   211  0218                     	;# 
   212  0218                     	;# 
   213  0219                     	;# 
   214  021A                     	;# 
   215  021B                     	;# 
   216  021B                     	;# 
   217  021C                     	;# 
   218  021C                     	;# 
   219  021D                     	;# 
   220  021D                     	;# 
   221  021E                     	;# 
   222  021F                     	;# 
   223  028C                     	;# 
   224  028C                     	;# 
   225  028D                     	;# 
   226  028D                     	;# 
   227  028E                     	;# 
   228  028F                     	;# 
   229  0290                     	;# 
   230  0290                     	;# 
   231  0291                     	;# 
   232  0292                     	;# 
   233  0292                     	;# 
   234  0293                     	;# 
   235  0293                     	;# 
   236  0294                     	;# 
   237  0295                     	;# 
   238  0296                     	;# 
   239  0296                     	;# 
   240  0297                     	;# 
   241  0298                     	;# 
   242  0298                     	;# 
   243  0299                     	;# 
   244  0299                     	;# 
   245  029A                     	;# 
   246  029B                     	;# 
   247  029C                     	;# 
   248  029C                     	;# 
   249  029D                     	;# 
   250  030C                     	;# 
   251  030C                     	;# 
   252  030D                     	;# 
   253  030E                     	;# 
   254  030F                     	;# 
   255  0310                     	;# 
   256  0310                     	;# 
   257  0311                     	;# 
   258  0312                     	;# 
   259  0313                     	;# 
   260  0314                     	;# 
   261  0314                     	;# 
   262  0315                     	;# 
   263  0316                     	;# 
   264  0317                     	;# 
   265  0318                     	;# 
   266  0318                     	;# 
   267  0319                     	;# 
   268  031A                     	;# 
   269  031B                     	;# 
   270  031C                     	;# 
   271  031C                     	;# 
   272  031D                     	;# 
   273  031E                     	;# 
   274  031F                     	;# 
   275  038C                     	;# 
   276  038C                     	;# 
   277  038D                     	;# 
   278  038E                     	;# 
   279  0390                     	;# 
   280  0390                     	;# 
   281  0391                     	;# 
   282  0392                     	;# 
   283  040C                     	;# 
   284  040D                     	;# 
   285  040E                     	;# 
   286  040F                     	;# 
   287  0410                     	;# 
   288  0411                     	;# 
   289  0416                     	;# 
   290  0416                     	;# 
   291  0417                     	;# 
   292  0418                     	;# 
   293  0418                     	;# 
   294  0419                     	;# 
   295  041A                     	;# 
   296  041A                     	;# 
   297  041B                     	;# 
   298  041C                     	;# 
   299  041C                     	;# 
   300  041D                     	;# 
   301  041E                     	;# 
   302  041F                     	;# 
   303  048C                     	;# 
   304  048C                     	;# 
   305  048D                     	;# 
   306  048E                     	;# 
   307  048F                     	;# 
   308  048F                     	;# 
   309  0490                     	;# 
   310  0491                     	;# 
   311  0492                     	;# 
   312  0492                     	;# 
   313  0493                     	;# 
   314  0494                     	;# 
   315  0495                     	;# 
   316  0495                     	;# 
   317  0496                     	;# 
   318  0497                     	;# 
   319  0498                     	;# 
   320  0499                     	;# 
   321  049A                     	;# 
   322  049B                     	;# 
   323  049C                     	;# 
   324  049D                     	;# 
   325  050C                     	;# 
   326  050C                     	;# 
   327  050D                     	;# 
   328  050E                     	;# 
   329  050F                     	;# 
   330  050F                     	;# 
   331  0510                     	;# 
   332  0511                     	;# 
   333  0512                     	;# 
   334  0512                     	;# 
   335  0513                     	;# 
   336  0514                     	;# 
   337  0515                     	;# 
   338  0515                     	;# 
   339  0516                     	;# 
   340  0517                     	;# 
   341  0518                     	;# 
   342  0519                     	;# 
   343  051A                     	;# 
   344  051B                     	;# 
   345  051C                     	;# 
   346  051D                     	;# 
   347  058C                     	;# 
   348  058C                     	;# 
   349  058D                     	;# 
   350  058E                     	;# 
   351  058F                     	;# 
   352  058F                     	;# 
   353  0590                     	;# 
   354  0591                     	;# 
   355  0592                     	;# 
   356  0593                     	;# 
   357  060C                     	;# 
   358  060D                     	;# 
   359  060E                     	;# 
   360  060F                     	;# 
   361  0610                     	;# 
   362  0611                     	;# 
   363  0612                     	;# 
   364  0613                     	;# 
   365  0614                     	;# 
   366  0616                     	;# 
   367  0617                     	;# 
   368  0618                     	;# 
   369  0619                     	;# 
   370  061A                     	;# 
   371  061B                     	;# 
   372  061C                     	;# 
   373  061D                     	;# 
   374  061E                     	;# 
   375  068C                     	;# 
   376  068D                     	;# 
   377  068E                     	;# 
   378  068F                     	;# 
   379  0690                     	;# 
   380  0691                     	;# 
   381  0692                     	;# 
   382  0693                     	;# 
   383  0694                     	;# 
   384  070C                     	;# 
   385  070D                     	;# 
   386  070E                     	;# 
   387  070F                     	;# 
   388  0710                     	;# 
   389  0711                     	;# 
   390  0712                     	;# 
   391  0713                     	;# 
   392  0714                     	;# 
   393  0716                     	;# 
   394  0717                     	;# 
   395  0718                     	;# 
   396  0719                     	;# 
   397  071A                     	;# 
   398  071B                     	;# 
   399  071C                     	;# 
   400  071D                     	;# 
   401  071E                     	;# 
   402  0796                     	;# 
   403  0797                     	;# 
   404  0798                     	;# 
   405  0799                     	;# 
   406  079A                     	;# 
   407  079B                     	;# 
   408  080C                     	;# 
   409  080D                     	;# 
   410  080E                     	;# 
   411  080F                     	;# 
   412  0810                     	;# 
   413  0811                     	;# 
   414  0812                     	;# 
   415  0813                     	;# 
   416  0814                     	;# 
   417  081A                     	;# 
   418  081B                     	;# 
   419  081C                     	;# 
   420  081D                     	;# 
   421  081E                     	;# 
   422  081F                     	;# 
   423  088C                     	;# 
   424  088D                     	;# 
   425  088E                     	;# 
   426  088F                     	;# 
   427  0890                     	;# 
   428  0891                     	;# 
   429  0892                     	;# 
   430  0893                     	;# 
   431  0895                     	;# 
   432  0896                     	;# 
   433  0897                     	;# 
   434  0898                     	;# 
   435  0899                     	;# 
   436  089A                     	;# 
   437  089B                     	;# 
   438  090C                     	;# 
   439  090E                     	;# 
   440  090F                     	;# 
   441  091F                     	;# 
   442  098F                     	;# 
   443  098F                     	;# 
   444  0990                     	;# 
   445  0991                     	;# 
   446  0992                     	;# 
   447  0993                     	;# 
   448  0994                     	;# 
   449  0995                     	;# 
   450  0996                     	;# 
   451  0997                     	;# 
   452  0E0F                     	;# 
   453  0E10                     	;# 
   454  0E11                     	;# 
   455  0E12                     	;# 
   456  0E13                     	;# 
   457  0E14                     	;# 
   458  0E15                     	;# 
   459  0E16                     	;# 
   460  0E17                     	;# 
   461  0E18                     	;# 
   462  0E19                     	;# 
   463  0E1A                     	;# 
   464  0E1B                     	;# 
   465  0E1C                     	;# 
   466  0E1D                     	;# 
   467  0E1E                     	;# 
   468  0E1F                     	;# 
   469  0E20                     	;# 
   470  0E21                     	;# 
   471  0E22                     	;# 
   472  0E23                     	;# 
   473  0E24                     	;# 
   474  0E25                     	;# 
   475  0E26                     	;# 
   476  0E27                     	;# 
   477  0E28                     	;# 
   478  0E29                     	;# 
   479  0E2A                     	;# 
   480  0E2B                     	;# 
   481  0E2C                     	;# 
   482  0E2D                     	;# 
   483  0E2E                     	;# 
   484  0E2F                     	;# 
   485  0E30                     	;# 
   486  0E31                     	;# 
   487  0E32                     	;# 
   488  0E33                     	;# 
   489  0E34                     	;# 
   490  0E35                     	;# 
   491  0E36                     	;# 
   492  0E37                     	;# 
   493  0E8F                     	;# 
   494  0E90                     	;# 
   495  0E91                     	;# 
   496  0E92                     	;# 
   497  0E93                     	;# 
   498  0E94                     	;# 
   499  0E95                     	;# 
   500  0E96                     	;# 
   501  0E97                     	;# 
   502  0E9C                     	;# 
   503  0E9D                     	;# 
   504  0E9E                     	;# 
   505  0EA1                     	;# 
   506  0EA2                     	;# 
   507  0EA3                     	;# 
   508  0EA4                     	;# 
   509  0EA5                     	;# 
   510  0EA9                     	;# 
   511  0EAA                     	;# 
   512  0EAB                     	;# 
   513  0EAC                     	;# 
   514  0EB1                     	;# 
   515  0EB2                     	;# 
   516  0EB3                     	;# 
   517  0EB8                     	;# 
   518  0EB9                     	;# 
   519  0EBA                     	;# 
   520  0EBB                     	;# 
   521  0EBC                     	;# 
   522  0EBD                     	;# 
   523  0EBE                     	;# 
   524  0EC3                     	;# 
   525  0EC5                     	;# 
   526  0EC6                     	;# 
   527  0EC7                     	;# 
   528  0EC8                     	;# 
   529  0EC9                     	;# 
   530  0ECA                     	;# 
   531  0ECB                     	;# 
   532  0ECC                     	;# 
   533  0F10                     	;# 
   534  0F11                     	;# 
   535  0F12                     	;# 
   536  0F13                     	;# 
   537  0F14                     	;# 
   538  0F15                     	;# 
   539  0F16                     	;# 
   540  0F17                     	;# 
   541  0F18                     	;# 
   542  0F19                     	;# 
   543  0F1A                     	;# 
   544  0F1B                     	;# 
   545  0F1C                     	;# 
   546  0F1D                     	;# 
   547  0F1E                     	;# 
   548  0F1F                     	;# 
   549  0F20                     	;# 
   550  0F21                     	;# 
   551  0F22                     	;# 
   552  0F23                     	;# 
   553  0F24                     	;# 
   554  0F25                     	;# 
   555  0F26                     	;# 
   556  0F27                     	;# 
   557  0F38                     	;# 
   558  0F39                     	;# 
   559  0F3A                     	;# 
   560  0F3B                     	;# 
   561  0F3C                     	;# 
   562  0F3D                     	;# 
   563  0F3E                     	;# 
   564  0F3F                     	;# 
   565  0F40                     	;# 
   566  0F41                     	;# 
   567  0F43                     	;# 
   568  0F44                     	;# 
   569  0F45                     	;# 
   570  0F46                     	;# 
   571  0F47                     	;# 
   572  0F48                     	;# 
   573  0F49                     	;# 
   574  0F4A                     	;# 
   575  0F4B                     	;# 
   576  0F4C                     	;# 
   577  0F4E                     	;# 
   578  0F4F                     	;# 
   579  0F50                     	;# 
   580  0F51                     	;# 
   581  0F52                     	;# 
   582  0F53                     	;# 
   583  0F54                     	;# 
   584  0F55                     	;# 
   585  0F56                     	;# 
   586  0F57                     	;# 
   587  0F65                     	;# 
   588  0F68                     	;# 
   589  0F69                     	;# 
   590  0F6A                     	;# 
   591  0F6B                     	;# 
   592  0FE4                     	;# 
   593  0FE5                     	;# 
   594  0FE6                     	;# 
   595  0FE7                     	;# 
   596  0FE8                     	;# 
   597  0FE9                     	;# 
   598  0FEA                     	;# 
   599  0FEB                     	;# 
   600  0FED                     	;# 
   601  0FEE                     	;# 
   602  0FEF                     	;# 
   603  0000                     	;# 
   604  0001                     	;# 
   605  0002                     	;# 
   606  0003                     	;# 
   607  0004                     	;# 
   608  0005                     	;# 
   609  0006                     	;# 
   610  0007                     	;# 
   611  0008                     	;# 
   612  0009                     	;# 
   613  000A                     	;# 
   614  000B                     	;# 
   615  000C                     	;# 
   616  000D                     	;# 
   617  000E                     	;# 
   618  0010                     	;# 
   619  0011                     	;# 
   620  0012                     	;# 
   621  0013                     	;# 
   622  0016                     	;# 
   623  0017                     	;# 
   624  0018                     	;# 
   625  001C                     	;# 
   626  001C                     	;# 
   627  001D                     	;# 
   628  001D                     	;# 
   629  001E                     	;# 
   630  001F                     	;# 
   631  008C                     	;# 
   632  008C                     	;# 
   633  008D                     	;# 
   634  008E                     	;# 
   635  008E                     	;# 
   636  008F                     	;# 
   637  0090                     	;# 
   638  0090                     	;# 
   639  0091                     	;# 
   640  0093                     	;# 
   641  0094                     	;# 
   642  0095                     	;# 
   643  0096                     	;# 
   644  0097                     	;# 
   645  0098                     	;# 
   646  0099                     	;# 
   647  009A                     	;# 
   648  009B                     	;# 
   649  009C                     	;# 
   650  009D                     	;# 
   651  009E                     	;# 
   652  010C                     	;# 
   653  010D                     	;# 
   654  010E                     	;# 
   655  010E                     	;# 
   656  010F                     	;# 
   657  0110                     	;# 
   658  0110                     	;# 
   659  0111                     	;# 
   660  0112                     	;# 
   661  0112                     	;# 
   662  0113                     	;# 
   663  0114                     	;# 
   664  0114                     	;# 
   665  0115                     	;# 
   666  0116                     	;# 
   667  0116                     	;# 
   668  0117                     	;# 
   669  0119                     	;# 
   670  0119                     	;# 
   671  0119                     	;# 
   672  011A                     	;# 
   673  011A                     	;# 
   674  011A                     	;# 
   675  011B                     	;# 
   676  011B                     	;# 
   677  011B                     	;# 
   678  011B                     	;# 
   679  011B                     	;# 
   680  011C                     	;# 
   681  011C                     	;# 
   682  011C                     	;# 
   683  011D                     	;# 
   684  011D                     	;# 
   685  011D                     	;# 
   686  011E                     	;# 
   687  011E                     	;# 
   688  011E                     	;# 
   689  011F                     	;# 
   690  011F                     	;# 
   691  011F                     	;# 
   692  011F                     	;# 
   693  011F                     	;# 
   694  018C                     	;# 
   695  018D                     	;# 
   696  018E                     	;# 
   697  018F                     	;# 
   698  0190                     	;# 
   699  0191                     	;# 
   700  0192                     	;# 
   701  0196                     	;# 
   702  0197                     	;# 
   703  0198                     	;# 
   704  0199                     	;# 
   705  019A                     	;# 
   706  019B                     	;# 
   707  019C                     	;# 
   708  020C                     	;# 
   709  020C                     	;# 
   710  020D                     	;# 
   711  020E                     	;# 
   712  020F                     	;# 
   713  020F                     	;# 
   714  0210                     	;# 
   715  0210                     	;# 
   716  0211                     	;# 
   717  0211                     	;# 
   718  0212                     	;# 
   719  0212                     	;# 
   720  0213                     	;# 
   721  0214                     	;# 
   722  0215                     	;# 
   723  0215                     	;# 
   724  0216                     	;# 
   725  0216                     	;# 
   726  0217                     	;# 
   727  0217                     	;# 
   728  0218                     	;# 
   729  0218                     	;# 
   730  0219                     	;# 
   731  021A                     	;# 
   732  021B                     	;# 
   733  021B                     	;# 
   734  021C                     	;# 
   735  021C                     	;# 
   736  021D                     	;# 
   737  021D                     	;# 
   738  021E                     	;# 
   739  021F                     	;# 
   740  028C                     	;# 
   741  028C                     	;# 
   742  028D                     	;# 
   743  028D                     	;# 
   744  028E                     	;# 
   745  028F                     	;# 
   746  0290                     	;# 
   747  0290                     	;# 
   748  0291                     	;# 
   749  0292                     	;# 
   750  0292                     	;# 
   751  0293                     	;# 
   752  0293                     	;# 
   753  0294                     	;# 
   754  0295                     	;# 
   755  0296                     	;# 
   756  0296                     	;# 
   757  0297                     	;# 
   758  0298                     	;# 
   759  0298                     	;# 
   760  0299                     	;# 
   761  0299                     	;# 
   762  029A                     	;# 
   763  029B                     	;# 
   764  029C                     	;# 
   765  029C                     	;# 
   766  029D                     	;# 
   767  030C                     	;# 
   768  030C                     	;# 
   769  030D                     	;# 
   770  030E                     	;# 
   771  030F                     	;# 
   772  0310                     	;# 
   773  0310                     	;# 
   774  0311                     	;# 
   775  0312                     	;# 
   776  0313                     	;# 
   777  0314                     	;# 
   778  0314                     	;# 
   779  0315                     	;# 
   780  0316                     	;# 
   781  0317                     	;# 
   782  0318                     	;# 
   783  0318                     	;# 
   784  0319                     	;# 
   785  031A                     	;# 
   786  031B                     	;# 
   787  031C                     	;# 
   788  031C                     	;# 
   789  031D                     	;# 
   790  031E                     	;# 
   791  031F                     	;# 
   792  038C                     	;# 
   793  038C                     	;# 
   794  038D                     	;# 
   795  038E                     	;# 
   796  0390                     	;# 
   797  0390                     	;# 
   798  0391                     	;# 
   799  0392                     	;# 
   800  040C                     	;# 
   801  040D                     	;# 
   802  040E                     	;# 
   803  040F                     	;# 
   804  0410                     	;# 
   805  0411                     	;# 
   806  0416                     	;# 
   807  0416                     	;# 
   808  0417                     	;# 
   809  0418                     	;# 
   810  0418                     	;# 
   811  0419                     	;# 
   812  041A                     	;# 
   813  041A                     	;# 
   814  041B                     	;# 
   815  041C                     	;# 
   816  041C                     	;# 
   817  041D                     	;# 
   818  041E                     	;# 
   819  041F                     	;# 
   820  048C                     	;# 
   821  048C                     	;# 
   822  048D                     	;# 
   823  048E                     	;# 
   824  048F                     	;# 
   825  048F                     	;# 
   826  0490                     	;# 
   827  0491                     	;# 
   828  0492                     	;# 
   829  0492                     	;# 
   830  0493                     	;# 
   831  0494                     	;# 
   832  0495                     	;# 
   833  0495                     	;# 
   834  0496                     	;# 
   835  0497                     	;# 
   836  0498                     	;# 
   837  0499                     	;# 
   838  049A                     	;# 
   839  049B                     	;# 
   840  049C                     	;# 
   841  049D                     	;# 
   842  050C                     	;# 
   843  050C                     	;# 
   844  050D                     	;# 
   845  050E                     	;# 
   846  050F                     	;# 
   847  050F                     	;# 
   848  0510                     	;# 
   849  0511                     	;# 
   850  0512                     	;# 
   851  0512                     	;# 
   852  0513                     	;# 
   853  0514                     	;# 
   854  0515                     	;# 
   855  0515                     	;# 
   856  0516                     	;# 
   857  0517                     	;# 
   858  0518                     	;# 
   859  0519                     	;# 
   860  051A                     	;# 
   861  051B                     	;# 
   862  051C                     	;# 
   863  051D                     	;# 
   864  058C                     	;# 
   865  058C                     	;# 
   866  058D                     	;# 
   867  058E                     	;# 
   868  058F                     	;# 
   869  058F                     	;# 
   870  0590                     	;# 
   871  0591                     	;# 
   872  0592                     	;# 
   873  0593                     	;# 
   874  060C                     	;# 
   875  060D                     	;# 
   876  060E                     	;# 
   877  060F                     	;# 
   878  0610                     	;# 
   879  0611                     	;# 
   880  0612                     	;# 
   881  0613                     	;# 
   882  0614                     	;# 
   883  0616                     	;# 
   884  0617                     	;# 
   885  0618                     	;# 
   886  0619                     	;# 
   887  061A                     	;# 
   888  061B                     	;# 
   889  061C                     	;# 
   890  061D                     	;# 
   891  061E                     	;# 
   892  068C                     	;# 
   893  068D                     	;# 
   894  068E                     	;# 
   895  068F                     	;# 
   896  0690                     	;# 
   897  0691                     	;# 
   898  0692                     	;# 
   899  0693                     	;# 
   900  0694                     	;# 
   901  070C                     	;# 
   902  070D                     	;# 
   903  070E                     	;# 
   904  070F                     	;# 
   905  0710                     	;# 
   906  0711                     	;# 
   907  0712                     	;# 
   908  0713                     	;# 
   909  0714                     	;# 
   910  0716                     	;# 
   911  0717                     	;# 
   912  0718                     	;# 
   913  0719                     	;# 
   914  071A                     	;# 
   915  071B                     	;# 
   916  071C                     	;# 
   917  071D                     	;# 
   918  071E                     	;# 
   919  0796                     	;# 
   920  0797                     	;# 
   921  0798                     	;# 
   922  0799                     	;# 
   923  079A                     	;# 
   924  079B                     	;# 
   925  080C                     	;# 
   926  080D                     	;# 
   927  080E                     	;# 
   928  080F                     	;# 
   929  0810                     	;# 
   930  0811                     	;# 
   931  0812                     	;# 
   932  0813                     	;# 
   933  0814                     	;# 
   934  081A                     	;# 
   935  081B                     	;# 
   936  081C                     	;# 
   937  081D                     	;# 
   938  081E                     	;# 
   939  081F                     	;# 
   940  088C                     	;# 
   941  088D                     	;# 
   942  088E                     	;# 
   943  088F                     	;# 
   944  0890                     	;# 
   945  0891                     	;# 
   946  0892                     	;# 
   947  0893                     	;# 
   948  0895                     	;# 
   949  0896                     	;# 
   950  0897                     	;# 
   951  0898                     	;# 
   952  0899                     	;# 
   953  089A                     	;# 
   954  089B                     	;# 
   955  090C                     	;# 
   956  090E                     	;# 
   957  090F                     	;# 
   958  091F                     	;# 
   959  098F                     	;# 
   960  098F                     	;# 
   961  0990                     	;# 
   962  0991                     	;# 
   963  0992                     	;# 
   964  0993                     	;# 
   965  0994                     	;# 
   966  0995                     	;# 
   967  0996                     	;# 
   968  0997                     	;# 
   969  0E0F                     	;# 
   970  0E10                     	;# 
   971  0E11                     	;# 
   972  0E12                     	;# 
   973  0E13                     	;# 
   974  0E14                     	;# 
   975  0E15                     	;# 
   976  0E16                     	;# 
   977  0E17                     	;# 
   978  0E18                     	;# 
   979  0E19                     	;# 
   980  0E1A                     	;# 
   981  0E1B                     	;# 
   982  0E1C                     	;# 
   983  0E1D                     	;# 
   984  0E1E                     	;# 
   985  0E1F                     	;# 
   986  0E20                     	;# 
   987  0E21                     	;# 
   988  0E22                     	;# 
   989  0E23                     	;# 
   990  0E24                     	;# 
   991  0E25                     	;# 
   992  0E26                     	;# 
   993  0E27                     	;# 
   994  0E28                     	;# 
   995  0E29                     	;# 
   996  0E2A                     	;# 
   997  0E2B                     	;# 
   998  0E2C                     	;# 
   999  0E2D                     	;# 
  1000  0E2E                     	;# 
  1001  0E2F                     	;# 
  1002  0E30                     	;# 
  1003  0E31                     	;# 
  1004  0E32                     	;# 
  1005  0E33                     	;# 
  1006  0E34                     	;# 
  1007  0E35                     	;# 
  1008  0E36                     	;# 
  1009  0E37                     	;# 
  1010  0E8F                     	;# 
  1011  0E90                     	;# 
  1012  0E91                     	;# 
  1013  0E92                     	;# 
  1014  0E93                     	;# 
  1015  0E94                     	;# 
  1016  0E95                     	;# 
  1017  0E96                     	;# 
  1018  0E97                     	;# 
  1019  0E9C                     	;# 
  1020  0E9D                     	;# 
  1021  0E9E                     	;# 
  1022  0EA1                     	;# 
  1023  0EA2                     	;# 
  1024  0EA3                     	;# 
  1025  0EA4                     	;# 
  1026  0EA5                     	;# 
  1027  0EA9                     	;# 
  1028  0EAA                     	;# 
  1029  0EAB                     	;# 
  1030  0EAC                     	;# 
  1031  0EB1                     	;# 
  1032  0EB2                     	;# 
  1033  0EB3                     	;# 
  1034  0EB8                     	;# 
  1035  0EB9                     	;# 
  1036  0EBA                     	;# 
  1037  0EBB                     	;# 
  1038  0EBC                     	;# 
  1039  0EBD                     	;# 
  1040  0EBE                     	;# 
  1041  0EC3                     	;# 
  1042  0EC5                     	;# 
  1043  0EC6                     	;# 
  1044  0EC7                     	;# 
  1045  0EC8                     	;# 
  1046  0EC9                     	;# 
  1047  0ECA                     	;# 
  1048  0ECB                     	;# 
  1049  0ECC                     	;# 
  1050  0F10                     	;# 
  1051  0F11                     	;# 
  1052  0F12                     	;# 
  1053  0F13                     	;# 
  1054  0F14                     	;# 
  1055  0F15                     	;# 
  1056  0F16                     	;# 
  1057  0F17                     	;# 
  1058  0F18                     	;# 
  1059  0F19                     	;# 
  1060  0F1A                     	;# 
  1061  0F1B                     	;# 
  1062  0F1C                     	;# 
  1063  0F1D                     	;# 
  1064  0F1E                     	;# 
  1065  0F1F                     	;# 
  1066  0F20                     	;# 
  1067  0F21                     	;# 
  1068  0F22                     	;# 
  1069  0F23                     	;# 
  1070  0F24                     	;# 
  1071  0F25                     	;# 
  1072  0F26                     	;# 
  1073  0F27                     	;# 
  1074  0F38                     	;# 
  1075  0F39                     	;# 
  1076  0F3A                     	;# 
  1077  0F3B                     	;# 
  1078  0F3C                     	;# 
  1079  0F3D                     	;# 
  1080  0F3E                     	;# 
  1081  0F3F                     	;# 
  1082  0F40                     	;# 
  1083  0F41                     	;# 
  1084  0F43                     	;# 
  1085  0F44                     	;# 
  1086  0F45                     	;# 
  1087  0F46                     	;# 
  1088  0F47                     	;# 
  1089  0F48                     	;# 
  1090  0F49                     	;# 
  1091  0F4A                     	;# 
  1092  0F4B                     	;# 
  1093  0F4C                     	;# 
  1094  0F4E                     	;# 
  1095  0F4F                     	;# 
  1096  0F50                     	;# 
  1097  0F51                     	;# 
  1098  0F52                     	;# 
  1099  0F53                     	;# 
  1100  0F54                     	;# 
  1101  0F55                     	;# 
  1102  0F56                     	;# 
  1103  0F57                     	;# 
  1104  0F65                     	;# 
  1105  0F68                     	;# 
  1106  0F69                     	;# 
  1107  0F6A                     	;# 
  1108  0F6B                     	;# 
  1109  0FE4                     	;# 
  1110  0FE5                     	;# 
  1111  0FE6                     	;# 
  1112  0FE7                     	;# 
  1113  0FE8                     	;# 
  1114  0FE9                     	;# 
  1115  0FEA                     	;# 
  1116  0FEB                     	;# 
  1117  0FED                     	;# 
  1118  0FEE                     	;# 
  1119  0FEF                     	;_ldra_message
  1120                           
  1121                           	psect	stringtext1
  1122  09ED                     __pstringtext1:	
  1123  09ED                     _CPU:	
  1124  09ED  3443               	retlw	67
  1125  09EE  3450               	retlw	80
  1126  09EF  3455               	retlw	85
  1127  09F0  3420               	retlw	32
  1128  09F1  343D               	retlw	61
  1129  09F2  3420               	retlw	32
  1130  09F3  3450               	retlw	80
  1131  09F4  3449               	retlw	73
  1132  09F5  3443               	retlw	67
  1133  09F6  3431               	retlw	49
  1134  09F7  3436               	retlw	54
  1135  09F8  344C               	retlw	76
  1136  09F9  3446               	retlw	70
  1137  09FA  3431               	retlw	49
  1138  09FB  3438               	retlw	56
  1139  09FC  3438               	retlw	56
  1140  09FD  3435               	retlw	53
  1141  09FE  3436               	retlw	54
  1142  09FF  340A               	retlw	10
  1143  0A00  3400               	retlw	0
  1144  0A01                     __end_of_CPU:	
  1145                           
  1146                           	psect	nvBANK0
  1147  004D                     __pnvBANK0:	
  1148  004D                     _ldra_fileid:	
  1149  004D                     	ds	2
  1150                           
  1151                           	psect	stringtext2
  1152  0800                     __pstringtext2:	
  1153  0800                     STR_11:	
  1154  0800  3431               	retlw	49	;'1'
  1155  0801  3433               	retlw	51	;'3'
  1156  0802  3434               	retlw	52	;'4'
  1157  0803  3425               	retlw	37	;'%'
  1158  0804  3435               	retlw	53	;'5'
  1159  0805  3464               	retlw	100	;'d'
  1160  0806  3420               	retlw	32	;' '
  1161  0807  3420               	retlw	32	;' '
  1162  0808  3420               	retlw	32	;' '
  1163  0809  3420               	retlw	32	;' '
  1164  080A  3420               	retlw	32	;' '
  1165  080B  3420               	retlw	32	;' '
  1166  080C  3470               	retlw	112	;'p'
  1167  080D  346F               	retlw	111	;'o'
  1168  080E  3469               	retlw	105	;'i'
  1169  080F  346E               	retlw	110	;'n'
  1170  0810  3474               	retlw	116	;'t'
  1171  0811  3465               	retlw	101	;'e'
  1172  0812  3472               	retlw	114	;'r'
  1173  0813  3420               	retlw	32	;' '
  1174  0814  3474               	retlw	116	;'t'
  1175  0815  346F               	retlw	111	;'o'
  1176  0816  3420               	retlw	32	;' '
  1177  0817  3461               	retlw	97	;'a'
  1178  0818  346E               	retlw	110	;'n'
  1179  0819  3479               	retlw	121	;'y'
  1180  081A  3420               	retlw	32	;' '
  1181  081B  3474               	retlw	116	;'t'
  1182  081C  3479               	retlw	121	;'y'
  1183  081D  3470               	retlw	112	;'p'
  1184  081E  3465               	retlw	101	;'e'
  1185  081F  3420               	retlw	32	;' '
  1186  0820  342D               	retlw	45	;'-'
  1187  0821  3420               	retlw	32	;' '
  1188  0822  346C               	retlw	108	;'l'
  1189  0823  3465               	retlw	101	;'e'
  1190  0824  346E               	retlw	110	;'n'
  1191  0825  3467               	retlw	103	;'g'
  1192  0826  3474               	retlw	116	;'t'
  1193  0827  3468               	retlw	104	;'h'
  1194  0828  3420               	retlw	32	;' '
  1195  0829  3469               	retlw	105	;'i'
  1196  082A  346E               	retlw	110	;'n'
  1197  082B  3420               	retlw	32	;' '
  1198  082C  3462               	retlw	98	;'b'
  1199  082D  3479               	retlw	121	;'y'
  1200  082E  3474               	retlw	116	;'t'
  1201  082F  3465               	retlw	101	;'e'
  1202  0830  3473               	retlw	115	;'s'
  1203  0831  342E               	retlw	46	;'.'
  1204  0832  340A               	retlw	10
  1205  0833  3400               	retlw	0
  1206                           
  1207                           	psect	stringtext3
  1208  0834                     __pstringtext3:	
  1209  0834                     STR_17:	
  1210  0834  3454               	retlw	84	;'T'
  1211  0835  3468               	retlw	104	;'h'
  1212  0836  3465               	retlw	101	;'e'
  1213  0837  3420               	retlw	32	;' '
  1214  0838  3471               	retlw	113	;'q'
  1215  0839  3475               	retlw	117	;'u'
  1216  083A  3469               	retlw	105	;'i'
  1217  083B  3463               	retlw	99	;'c'
  1218  083C  346B               	retlw	107	;'k'
  1219  083D  3420               	retlw	32	;' '
  1220  083E  3462               	retlw	98	;'b'
  1221  083F  3472               	retlw	114	;'r'
  1222  0840  346F               	retlw	111	;'o'
  1223  0841  3477               	retlw	119	;'w'
  1224  0842  346E               	retlw	110	;'n'
  1225  0843  3420               	retlw	32	;' '
  1226  0844  3466               	retlw	102	;'f'
  1227  0845  346F               	retlw	111	;'o'
  1228  0846  3478               	retlw	120	;'x'
  1229  0847  3420               	retlw	32	;' '
  1230  0848  346A               	retlw	106	;'j'
  1231  0849  3475               	retlw	117	;'u'
  1232  084A  346D               	retlw	109	;'m'
  1233  084B  3470               	retlw	112	;'p'
  1234  084C  3473               	retlw	115	;'s'
  1235  084D  3420               	retlw	32	;' '
  1236  084E  346F               	retlw	111	;'o'
  1237  084F  3476               	retlw	118	;'v'
  1238  0850  3465               	retlw	101	;'e'
  1239  0851  3472               	retlw	114	;'r'
  1240  0852  3420               	retlw	32	;' '
  1241  0853  3474               	retlw	116	;'t'
  1242  0854  3468               	retlw	104	;'h'
  1243  0855  3465               	retlw	101	;'e'
  1244  0856  3420               	retlw	32	;' '
  1245  0857  346C               	retlw	108	;'l'
  1246  0858  3461               	retlw	97	;'a'
  1247  0859  347A               	retlw	122	;'z'
  1248  085A  3479               	retlw	121	;'y'
  1249  085B  3420               	retlw	32	;' '
  1250  085C  3464               	retlw	100	;'d'
  1251  085D  346F               	retlw	111	;'o'
  1252  085E  3467               	retlw	103	;'g'
  1253  085F  340A               	retlw	10
  1254  0860  3400               	retlw	0
  1255                           
  1256                           	psect	stringtext4
  1257  0861                     __pstringtext4:	
  1258  0861                     STR_10:	
  1259  0861  3431               	retlw	49	;'1'
  1260  0862  3433               	retlw	51	;'3'
  1261  0863  3433               	retlw	51	;'3'
  1262  0864  3425               	retlw	37	;'%'
  1263  0865  3435               	retlw	53	;'5'
  1264  0866  3464               	retlw	100	;'d'
  1265  0867  3420               	retlw	32	;' '
  1266  0868  3420               	retlw	32	;' '
  1267  0869  3420               	retlw	32	;' '
  1268  086A  3420               	retlw	32	;' '
  1269  086B  3420               	retlw	32	;' '
  1270  086C  3420               	retlw	32	;' '
  1271  086D  346C               	retlw	108	;'l'
  1272  086E  346F               	retlw	111	;'o'
  1273  086F  346E               	retlw	110	;'n'
  1274  0870  3467               	retlw	103	;'g'
  1275  0871  3420               	retlw	32	;' '
  1276  0872  3464               	retlw	100	;'d'
  1277  0873  346F               	retlw	111	;'o'
  1278  0874  3475               	retlw	117	;'u'
  1279  0875  3462               	retlw	98	;'b'
  1280  0876  346C               	retlw	108	;'l'
  1281  0877  3465               	retlw	101	;'e'
  1282  0878  3420               	retlw	32	;' '
  1283  0879  342D               	retlw	45	;'-'
  1284  087A  3420               	retlw	32	;' '
  1285  087B  346C               	retlw	108	;'l'
  1286  087C  3465               	retlw	101	;'e'
  1287  087D  346E               	retlw	110	;'n'
  1288  087E  3467               	retlw	103	;'g'
  1289  087F  3474               	retlw	116	;'t'
  1290  0880  3468               	retlw	104	;'h'
  1291  0881  3420               	retlw	32	;' '
  1292  0882  3469               	retlw	105	;'i'
  1293  0883  346E               	retlw	110	;'n'
  1294  0884  3420               	retlw	32	;' '
  1295  0885  3462               	retlw	98	;'b'
  1296  0886  3479               	retlw	121	;'y'
  1297  0887  3474               	retlw	116	;'t'
  1298  0888  3465               	retlw	101	;'e'
  1299  0889  3473               	retlw	115	;'s'
  1300  088A  342E               	retlw	46	;'.'
  1301  088B  340A               	retlw	10
  1302  088C  3400               	retlw	0
  1303                           
  1304                           	psect	stringtext5
  1305  088D                     __pstringtext5:	
  1306  088D                     STR_12:	
  1307  088D  3431               	retlw	49	;'1'
  1308  088E  3439               	retlw	57	;'9'
  1309  088F  3437               	retlw	55	;'7'
  1310  0890  3425               	retlw	37	;'%'
  1311  0891  3435               	retlw	53	;'5'
  1312  0892  3464               	retlw	100	;'d'
  1313  0893  3420               	retlw	32	;' '
  1314  0894  3420               	retlw	32	;' '
  1315  0895  3420               	retlw	32	;' '
  1316  0896  3420               	retlw	32	;' '
  1317  0897  3420               	retlw	32	;' '
  1318  0898  3420               	retlw	32	;' '
  1319  0899  346C               	retlw	108	;'l'
  1320  089A  346F               	retlw	111	;'o'
  1321  089B  346E               	retlw	110	;'n'
  1322  089C  3467               	retlw	103	;'g'
  1323  089D  3420               	retlw	32	;' '
  1324  089E  346C               	retlw	108	;'l'
  1325  089F  346F               	retlw	111	;'o'
  1326  08A0  346E               	retlw	110	;'n'
  1327  08A1  3467               	retlw	103	;'g'
  1328  08A2  3420               	retlw	32	;' '
  1329  08A3  342D               	retlw	45	;'-'
  1330  08A4  3420               	retlw	32	;' '
  1331  08A5  346C               	retlw	108	;'l'
  1332  08A6  3465               	retlw	101	;'e'
  1333  08A7  346E               	retlw	110	;'n'
  1334  08A8  3467               	retlw	103	;'g'
  1335  08A9  3474               	retlw	116	;'t'
  1336  08AA  3468               	retlw	104	;'h'
  1337  08AB  3420               	retlw	32	;' '
  1338  08AC  3469               	retlw	105	;'i'
  1339  08AD  346E               	retlw	110	;'n'
  1340  08AE  3420               	retlw	32	;' '
  1341  08AF  3462               	retlw	98	;'b'
  1342  08B0  3479               	retlw	121	;'y'
  1343  08B1  3474               	retlw	116	;'t'
  1344  08B2  3465               	retlw	101	;'e'
  1345  08B3  3473               	retlw	115	;'s'
  1346  08B4  342E               	retlw	46	;'.'
  1347  08B5  340A               	retlw	10
  1348  08B6  3400               	retlw	0
  1349                           
  1350                           	psect	stringtext6
  1351  08B7                     __pstringtext6:	
  1352  08B7                     STR_13:	
  1353  08B7  3433               	retlw	51	;'3'
  1354  08B8  3438               	retlw	56	;'8'
  1355  08B9  3432               	retlw	50	;'2'
  1356  08BA  3425               	retlw	37	;'%'
  1357  08BB  3435               	retlw	53	;'5'
  1358  08BC  3464               	retlw	100	;'d'
  1359  08BD  3420               	retlw	32	;' '
  1360  08BE  3420               	retlw	32	;' '
  1361  08BF  3420               	retlw	32	;' '
  1362  08C0  3420               	retlw	32	;' '
  1363  08C1  3420               	retlw	32	;' '
  1364  08C2  3420               	retlw	32	;' '
  1365  08C3  346E               	retlw	110	;'n'
  1366  08C4  3475               	retlw	117	;'u'
  1367  08C5  346D               	retlw	109	;'m'
  1368  08C6  3462               	retlw	98	;'b'
  1369  08C7  3465               	retlw	101	;'e'
  1370  08C8  3472               	retlw	114	;'r'
  1371  08C9  3420               	retlw	32	;' '
  1372  08CA  346F               	retlw	111	;'o'
  1373  08CB  3466               	retlw	102	;'f'
  1374  08CC  3420               	retlw	32	;' '
  1375  08CD  3462               	retlw	98	;'b'
  1376  08CE  3469               	retlw	105	;'i'
  1377  08CF  3474               	retlw	116	;'t'
  1378  08D0  3473               	retlw	115	;'s'
  1379  08D1  3420               	retlw	32	;' '
  1380  08D2  3469               	retlw	105	;'i'
  1381  08D3  346E               	retlw	110	;'n'
  1382  08D4  3420               	retlw	32	;' '
  1383  08D5  3461               	retlw	97	;'a'
  1384  08D6  3420               	retlw	32	;' '
  1385  08D7  3462               	retlw	98	;'b'
  1386  08D8  3479               	retlw	121	;'y'
  1387  08D9  3474               	retlw	116	;'t'
  1388  08DA  3465               	retlw	101	;'e'
  1389  08DB  342E               	retlw	46	;'.'
  1390  08DC  340A               	retlw	10
  1391  08DD  340A               	retlw	10
  1392  08DE  3400               	retlw	0
  1393                           
  1394                           	psect	stringtext7
  1395  08DF                     __pstringtext7:	
  1396  08DF                     STR_9:	
  1397  08DF  3431               	retlw	49	;'1'
  1398  08E0  3433               	retlw	51	;'3'
  1399  08E1  3432               	retlw	50	;'2'
  1400  08E2  3425               	retlw	37	;'%'
  1401  08E3  3435               	retlw	53	;'5'
  1402  08E4  3464               	retlw	100	;'d'
  1403  08E5  3420               	retlw	32	;' '
  1404  08E6  3420               	retlw	32	;' '
  1405  08E7  3420               	retlw	32	;' '
  1406  08E8  3420               	retlw	32	;' '
  1407  08E9  3420               	retlw	32	;' '
  1408  08EA  3420               	retlw	32	;' '
  1409  08EB  3464               	retlw	100	;'d'
  1410  08EC  346F               	retlw	111	;'o'
  1411  08ED  3475               	retlw	117	;'u'
  1412  08EE  3462               	retlw	98	;'b'
  1413  08EF  346C               	retlw	108	;'l'
  1414  08F0  3465               	retlw	101	;'e'
  1415  08F1  3420               	retlw	32	;' '
  1416  08F2  342D               	retlw	45	;'-'
  1417  08F3  3420               	retlw	32	;' '
  1418  08F4  346C               	retlw	108	;'l'
  1419  08F5  3465               	retlw	101	;'e'
  1420  08F6  346E               	retlw	110	;'n'
  1421  08F7  3467               	retlw	103	;'g'
  1422  08F8  3474               	retlw	116	;'t'
  1423  08F9  3468               	retlw	104	;'h'
  1424  08FA  3420               	retlw	32	;' '
  1425  08FB  3469               	retlw	105	;'i'
  1426  08FC  346E               	retlw	110	;'n'
  1427  08FD  3420               	retlw	32	;' '
  1428  08FE  3462               	retlw	98	;'b'
  1429  08FF  3479               	retlw	121	;'y'
  1430  0900  3474               	retlw	116	;'t'
  1431  0901  3465               	retlw	101	;'e'
  1432  0902  3473               	retlw	115	;'s'
  1433  0903  342E               	retlw	46	;'.'
  1434  0904  340A               	retlw	10
  1435  0905  3400               	retlw	0
  1436                           
  1437                           	psect	stringtext8
  1438  0906                     __pstringtext8:	
  1439  0906                     STR_8:	
  1440  0906  3431               	retlw	49	;'1'
  1441  0907  3433               	retlw	51	;'3'
  1442  0908  3431               	retlw	49	;'1'
  1443  0909  3425               	retlw	37	;'%'
  1444  090A  3435               	retlw	53	;'5'
  1445  090B  3464               	retlw	100	;'d'
  1446  090C  3420               	retlw	32	;' '
  1447  090D  3420               	retlw	32	;' '
  1448  090E  3420               	retlw	32	;' '
  1449  090F  3420               	retlw	32	;' '
  1450  0910  3420               	retlw	32	;' '
  1451  0911  3420               	retlw	32	;' '
  1452  0912  3466               	retlw	102	;'f'
  1453  0913  346C               	retlw	108	;'l'
  1454  0914  346F               	retlw	111	;'o'
  1455  0915  3461               	retlw	97	;'a'
  1456  0916  3474               	retlw	116	;'t'
  1457  0917  3420               	retlw	32	;' '
  1458  0918  342D               	retlw	45	;'-'
  1459  0919  3420               	retlw	32	;' '
  1460  091A  346C               	retlw	108	;'l'
  1461  091B  3465               	retlw	101	;'e'
  1462  091C  346E               	retlw	110	;'n'
  1463  091D  3467               	retlw	103	;'g'
  1464  091E  3474               	retlw	116	;'t'
  1465  091F  3468               	retlw	104	;'h'
  1466  0920  3420               	retlw	32	;' '
  1467  0921  3469               	retlw	105	;'i'
  1468  0922  346E               	retlw	110	;'n'
  1469  0923  3420               	retlw	32	;' '
  1470  0924  3462               	retlw	98	;'b'
  1471  0925  3479               	retlw	121	;'y'
  1472  0926  3474               	retlw	116	;'t'
  1473  0927  3465               	retlw	101	;'e'
  1474  0928  3473               	retlw	115	;'s'
  1475  0929  342E               	retlw	46	;'.'
  1476  092A  340A               	retlw	10
  1477  092B  3400               	retlw	0
  1478                           
  1479                           	psect	stringtext9
  1480  092C                     __pstringtext9:	
  1481  092C                     STR_5:	
  1482  092C  3431               	retlw	49	;'1'
  1483  092D  3432               	retlw	50	;'2'
  1484  092E  3438               	retlw	56	;'8'
  1485  092F  3425               	retlw	37	;'%'
  1486  0930  3435               	retlw	53	;'5'
  1487  0931  3464               	retlw	100	;'d'
  1488  0932  3420               	retlw	32	;' '
  1489  0933  3420               	retlw	32	;' '
  1490  0934  3420               	retlw	32	;' '
  1491  0935  3420               	retlw	32	;' '
  1492  0936  3420               	retlw	32	;' '
  1493  0937  3420               	retlw	32	;' '
  1494  0938  3473               	retlw	115	;'s'
  1495  0939  3468               	retlw	104	;'h'
  1496  093A  346F               	retlw	111	;'o'
  1497  093B  3472               	retlw	114	;'r'
  1498  093C  3474               	retlw	116	;'t'
  1499  093D  3420               	retlw	32	;' '
  1500  093E  342D               	retlw	45	;'-'
  1501  093F  3420               	retlw	32	;' '
  1502  0940  346C               	retlw	108	;'l'
  1503  0941  3465               	retlw	101	;'e'
  1504  0942  346E               	retlw	110	;'n'
  1505  0943  3467               	retlw	103	;'g'
  1506  0944  3474               	retlw	116	;'t'
  1507  0945  3468               	retlw	104	;'h'
  1508  0946  3420               	retlw	32	;' '
  1509  0947  3469               	retlw	105	;'i'
  1510  0948  346E               	retlw	110	;'n'
  1511  0949  3420               	retlw	32	;' '
  1512  094A  3462               	retlw	98	;'b'
  1513  094B  3479               	retlw	121	;'y'
  1514  094C  3474               	retlw	116	;'t'
  1515  094D  3465               	retlw	101	;'e'
  1516  094E  3473               	retlw	115	;'s'
  1517  094F  342E               	retlw	46	;'.'
  1518  0950  340A               	retlw	10
  1519  0951  3400               	retlw	0
  1520                           
  1521                           	psect	stringtext10
  1522  0952                     __pstringtext10:	
  1523  0952                     STR_7:	
  1524  0952  3431               	retlw	49	;'1'
  1525  0953  3433               	retlw	51	;'3'
  1526  0954  3430               	retlw	48	;'0'
  1527  0955  3425               	retlw	37	;'%'
  1528  0956  3435               	retlw	53	;'5'
  1529  0957  3464               	retlw	100	;'d'
  1530  0958  3420               	retlw	32	;' '
  1531  0959  3420               	retlw	32	;' '
  1532  095A  3420               	retlw	32	;' '
  1533  095B  3420               	retlw	32	;' '
  1534  095C  3420               	retlw	32	;' '
  1535  095D  3420               	retlw	32	;' '
  1536  095E  346C               	retlw	108	;'l'
  1537  095F  346F               	retlw	111	;'o'
  1538  0960  346E               	retlw	110	;'n'
  1539  0961  3467               	retlw	103	;'g'
  1540  0962  3420               	retlw	32	;' '
  1541  0963  342D               	retlw	45	;'-'
  1542  0964  3420               	retlw	32	;' '
  1543  0965  346C               	retlw	108	;'l'
  1544  0966  3465               	retlw	101	;'e'
  1545  0967  346E               	retlw	110	;'n'
  1546  0968  3467               	retlw	103	;'g'
  1547  0969  3474               	retlw	116	;'t'
  1548  096A  3468               	retlw	104	;'h'
  1549  096B  3420               	retlw	32	;' '
  1550  096C  3469               	retlw	105	;'i'
  1551  096D  346E               	retlw	110	;'n'
  1552  096E  3420               	retlw	32	;' '
  1553  096F  3462               	retlw	98	;'b'
  1554  0970  3479               	retlw	121	;'y'
  1555  0971  3474               	retlw	116	;'t'
  1556  0972  3465               	retlw	101	;'e'
  1557  0973  3473               	retlw	115	;'s'
  1558  0974  342E               	retlw	46	;'.'
  1559  0975  340A               	retlw	10
  1560  0976  3400               	retlw	0
  1561                           
  1562                           	psect	stringtext11
  1563  0977                     __pstringtext11:	
  1564  0977                     STR_4:	
  1565  0977  3431               	retlw	49	;'1'
  1566  0978  3432               	retlw	50	;'2'
  1567  0979  3437               	retlw	55	;'7'
  1568  097A  3425               	retlw	37	;'%'
  1569  097B  3435               	retlw	53	;'5'
  1570  097C  3464               	retlw	100	;'d'
  1571  097D  3420               	retlw	32	;' '
  1572  097E  3420               	retlw	32	;' '
  1573  097F  3420               	retlw	32	;' '
  1574  0980  3420               	retlw	32	;' '
  1575  0981  3420               	retlw	32	;' '
  1576  0982  3420               	retlw	32	;' '
  1577  0983  3463               	retlw	99	;'c'
  1578  0984  3468               	retlw	104	;'h'
  1579  0985  3461               	retlw	97	;'a'
  1580  0986  3472               	retlw	114	;'r'
  1581  0987  3420               	retlw	32	;' '
  1582  0988  342D               	retlw	45	;'-'
  1583  0989  3420               	retlw	32	;' '
  1584  098A  346C               	retlw	108	;'l'
  1585  098B  3465               	retlw	101	;'e'
  1586  098C  346E               	retlw	110	;'n'
  1587  098D  3467               	retlw	103	;'g'
  1588  098E  3474               	retlw	116	;'t'
  1589  098F  3468               	retlw	104	;'h'
  1590  0990  3420               	retlw	32	;' '
  1591  0991  3469               	retlw	105	;'i'
  1592  0992  346E               	retlw	110	;'n'
  1593  0993  3420               	retlw	32	;' '
  1594  0994  3462               	retlw	98	;'b'
  1595  0995  3479               	retlw	121	;'y'
  1596  0996  3474               	retlw	116	;'t'
  1597  0997  3465               	retlw	101	;'e'
  1598  0998  3473               	retlw	115	;'s'
  1599  0999  342E               	retlw	46	;'.'
  1600  099A  340A               	retlw	10
  1601  099B  3400               	retlw	0
  1602                           
  1603                           	psect	stringtext12
  1604  099C                     __pstringtext12:	
  1605  099C                     STR_6:	
  1606  099C  3431               	retlw	49	;'1'
  1607  099D  3432               	retlw	50	;'2'
  1608  099E  3439               	retlw	57	;'9'
  1609  099F  3425               	retlw	37	;'%'
  1610  09A0  3435               	retlw	53	;'5'
  1611  09A1  3464               	retlw	100	;'d'
  1612  09A2  3420               	retlw	32	;' '
  1613  09A3  3420               	retlw	32	;' '
  1614  09A4  3420               	retlw	32	;' '
  1615  09A5  3420               	retlw	32	;' '
  1616  09A6  3420               	retlw	32	;' '
  1617  09A7  3420               	retlw	32	;' '
  1618  09A8  3469               	retlw	105	;'i'
  1619  09A9  346E               	retlw	110	;'n'
  1620  09AA  3474               	retlw	116	;'t'
  1621  09AB  3420               	retlw	32	;' '
  1622  09AC  342D               	retlw	45	;'-'
  1623  09AD  3420               	retlw	32	;' '
  1624  09AE  346C               	retlw	108	;'l'
  1625  09AF  3465               	retlw	101	;'e'
  1626  09B0  346E               	retlw	110	;'n'
  1627  09B1  3467               	retlw	103	;'g'
  1628  09B2  3474               	retlw	116	;'t'
  1629  09B3  3468               	retlw	104	;'h'
  1630  09B4  3420               	retlw	32	;' '
  1631  09B5  3469               	retlw	105	;'i'
  1632  09B6  346E               	retlw	110	;'n'
  1633  09B7  3420               	retlw	32	;' '
  1634  09B8  3462               	retlw	98	;'b'
  1635  09B9  3479               	retlw	121	;'y'
  1636  09BA  3474               	retlw	116	;'t'
  1637  09BB  3465               	retlw	101	;'e'
  1638  09BC  3473               	retlw	115	;'s'
  1639  09BD  342E               	retlw	46	;'.'
  1640  09BE  340A               	retlw	10
  1641  09BF  3400               	retlw	0
  1642                           
  1643                           	psect	stringtext13
  1644  09C0                     __pstringtext13:	
  1645  09C0                     STR_15:	
  1646  09C0  343D               	retlw	61	;'='
  1647  09C1  343D               	retlw	61	;'='
  1648  09C2  343D               	retlw	61	;'='
  1649  09C3  343D               	retlw	61	;'='
  1650  09C4  343D               	retlw	61	;'='
  1651  09C5  343D               	retlw	61	;'='
  1652  09C6  343D               	retlw	61	;'='
  1653  09C7  343D               	retlw	61	;'='
  1654  09C8  343D               	retlw	61	;'='
  1655  09C9  343D               	retlw	61	;'='
  1656  09CA  343D               	retlw	61	;'='
  1657  09CB  343D               	retlw	61	;'='
  1658  09CC  343D               	retlw	61	;'='
  1659  09CD  343D               	retlw	61	;'='
  1660  09CE  343D               	retlw	61	;'='
  1661  09CF  343D               	retlw	61	;'='
  1662  09D0  343D               	retlw	61	;'='
  1663  09D1  343D               	retlw	61	;'='
  1664  09D2  343D               	retlw	61	;'='
  1665  09D3  343D               	retlw	61	;'='
  1666  09D4  340A               	retlw	10
  1667  09D5  340A               	retlw	10
  1668  09D6  3400               	retlw	0
  1669                           
  1670                           	psect	stringtext14
  1671  09D7                     __pstringtext14:	
  1672  09D7                     STR_14:	
  1673  09D7  3451               	retlw	81	;'Q'
  1674  09D8  3475               	retlw	117	;'u'
  1675  09D9  3469               	retlw	105	;'i'
  1676  09DA  3463               	retlw	99	;'c'
  1677  09DB  346B               	retlw	107	;'k'
  1678  09DC  3420               	retlw	32	;' '
  1679  09DD  3442               	retlw	66	;'B'
  1680  09DE  3472               	retlw	114	;'r'
  1681  09DF  346F               	retlw	111	;'o'
  1682  09E0  3477               	retlw	119	;'w'
  1683  09E1  346E               	retlw	110	;'n'
  1684  09E2  3420               	retlw	32	;' '
  1685  09E3  3446               	retlw	70	;'F'
  1686  09E4  346F               	retlw	111	;'o'
  1687  09E5  3478               	retlw	120	;'x'
  1688  09E6  3420               	retlw	32	;' '
  1689  09E7  3454               	retlw	84	;'T'
  1690  09E8  3465               	retlw	101	;'e'
  1691  09E9  3473               	retlw	115	;'s'
  1692  09EA  3474               	retlw	116	;'t'
  1693  09EB  340A               	retlw	10
  1694  09EC  3400               	retlw	0
  1695                           
  1696                           	psect	stringtext15
  1697  0A01                     __pstringtext15:	
  1698  0A01                     STR_1:	
  1699  0A01  3443               	retlw	67	;'C'
  1700  0A02  3448               	retlw	72	;'H'
  1701  0A03  3441               	retlw	65	;'A'
  1702  0A04  3452               	retlw	82	;'R'
  1703  0A05  345F               	retlw	95	;'_'
  1704  0A06  3442               	retlw	66	;'B'
  1705  0A07  3449               	retlw	73	;'I'
  1706  0A08  3454               	retlw	84	;'T'
  1707  0A09  3420               	retlw	32	;' '
  1708  0A0A  343D               	retlw	61	;'='
  1709  0A0B  3420               	retlw	32	;' '
  1710  0A0C  3425               	retlw	37	;'%'
  1711  0A0D  3432               	retlw	50	;'2'
  1712  0A0E  3464               	retlw	100	;'d'
  1713  0A0F  340A               	retlw	10
  1714  0A10  340A               	retlw	10
  1715  0A11  3400               	retlw	0
  1716                           
  1717                           	psect	stringtext16
  1718  0A12                     __pstringtext16:	
  1719  0A12                     STR_2:	
  1720  0A12  343C               	retlw	60	;'<'
  1721  0A13  346C               	retlw	108	;'l'
  1722  0A14  3461               	retlw	97	;'a'
  1723  0A15  346E               	retlw	110	;'n'
  1724  0A16  3467               	retlw	103	;'g'
  1725  0A17  343E               	retlw	62	;'>'
  1726  0A18  3476               	retlw	118	;'v'
  1727  0A19  3461               	retlw	97	;'a'
  1728  0A1A  346C               	retlw	108	;'l'
  1729  0A1B  3473               	retlw	115	;'s'
  1730  0A1C  342E               	retlw	46	;'.'
  1731  0A1D  3464               	retlw	100	;'d'
  1732  0A1E  3461               	retlw	97	;'a'
  1733  0A1F  3474               	retlw	116	;'t'
  1734  0A20  340A               	retlw	10
  1735  0A21  3400               	retlw	0
  1736                           
  1737                           	psect	stringtext17
  1738  0A22                     __pstringtext17:	
  1739  0A22                     STR_16:	
  1740  0A22  3425               	retlw	37	;'%'
  1741  0A23  3434               	retlw	52	;'4'
  1742  0A24  3464               	retlw	100	;'d'
  1743  0A25  3420               	retlw	32	;' '
  1744  0A26  343A               	retlw	58	;':'
  1745  0A27  3420               	retlw	32	;' '
  1746  0A28  3400               	retlw	0
  1747                           
  1748                           	psect	stringtext18
  1749  0000                     __pstringtext18:	
  1750  09C6                     
  1751                           	psect	cinit
  1752  07E1                     start_initialization:	
  1753                           ; #config settings
  1754                           
  1755  07E1                     __initialization:		;BIGRAM
  1756                           
  1757                           ; Clear objects allocated to BIGRAM
  1758  07E1  30EF               	movlw	low (0+9967)
  1759  07E2  0084               	movwf	4
  1760  07E3  3026               	movlw	high (0+9967)
  1761  07E4  0085               	movwf	5
  1762  07E5  3001               	movlw	1
  1763  07E6  00FE               	movwf	btemp
  1764  07E7  3001               	movlw	1
  1765  07E8  00FF               	movwf	btemp+1
  1766  07E9  3183  2345  3187   	fcall	clear_ram0
  1767                           
  1768                           ; Clear objects allocated to BANK0
  1769  07EC  0020               	movlb	0	; select bank0
  1770  07ED  01C7               	clrf	__pbssBANK0& (0+127)
  1771  07EE  01C8               	clrf	(__pbssBANK0+1)& (0+127)
  1772  07EF  01C9               	clrf	(__pbssBANK0+2)& (0+127)
  1773  07F0  01CA               	clrf	(__pbssBANK0+3)& (0+127)
  1774  07F1  01CB               	clrf	(__pbssBANK0+4)& (0+127)
  1775  07F2  01CC               	clrf	(__pbssBANK0+5)& (0+127)
  1776                           
  1777                           ; Clear objects allocated to BANK2
  1778  07F3  3020               	movlw	low __pbssBANK2
  1779  07F4  0084               	movwf	4
  1780  07F5  3001               	movlw	high __pbssBANK2
  1781  07F6  0085               	movwf	5
  1782  07F7  3040               	movlw	64
  1783  07F8  00FE               	movwf	btemp
  1784  07F9  3000               	movlw	0
  1785  07FA  00FF               	movwf	btemp+1
  1786  07FB  3183  2345         	fcall	clear_ram0
  1787  07FD                     end_of_initialization:	
  1788                           ;End of C runtime variable initialization code
  1789                           
  1790  07FD                     __end_of__initialization:	
  1791  07FD  0020               	movlb	0
  1792  07FE  3185  2D27         	ljmp	_main	;jump to C main() function
  1793                           
  1794                           	psect	bssBANK0
  1795  0047                     __pbssBANK0:	
  1796  0047                     _ldra_exit_reached:	
  1797  0047                     	ds	2
  1798  0049                     _iter_ldra_message:	
  1799  0049                     	ds	2
  1800  004B                     _Configured:	
  1801  004B                     	ds	2
  1802                           
  1803                           	psect	bssBANK2
  1804  0120                     __pbssBANK2:	
  1805  0120                     _ldra_buffer:	
  1806  0120                     	ds	64
  1807                           
  1808                           	psect	clrtext
  1809  0345                     clear_ram0:	
  1810                           ;	Called with FSR0 containing the base address, and
  1811                           ;	btemp/btemp+1 has the size to clear
  1812                           
  1813  0345  0064               	clrwdt	;clear the watchdog before getting into this loop
  1814  0346                     clrloop0:	
  1815  0346  0180               	clrf	0	;clear RAM location pointed to by FSR
  1816  0347  3101               	addfsr 0,1
  1817  0348  3001               	movlw	1
  1818  0349  02FE               	subwf	126,f
  1819  034A  3000               	movlw	0
  1820  034B  3BFF               	subwfb	127,f
  1821  034C  087F               	movf	127,w
  1822  034D  047E               	iorwf	126,w
  1823  034E  1903               	btfsc	3,2
  1824  034F  3400               	retlw	0	;all done for this memory range, return
  1825  0350  2B46               	goto	clrloop0	;have we reached the end yet?
  1826                           
  1827                           	psect	cstackBANK1
  1828  00A0                     __pcstackBANK1:	
  1829  00A0                     main@msg:	
  1830                           
  1831                           ; 64 bytes @ 0x0
  1832  00A0                     	ds	64
  1833  00E0                     main@count:	
  1834                           
  1835                           ; 2 bytes @ 0x40
  1836  00E0                     	ds	2
  1837                           
  1838                           	psect	cstackCOMMON
  1839  0070                     __pcstackCOMMON:	
  1840  0070                     ?_ldra_upload:	
  1841  0070                     ??_ldra_upload:	
  1842                           ; 1 bytes @ 0x0
  1843                           
  1844  0070                     ?_ldra_exit:	
  1845                           ; 1 bytes @ 0x0
  1846                           
  1847  0070                     ??_ldra_exit:	
  1848                           ; 1 bytes @ 0x0
  1849                           
  1850  0070                     ?_ldra_port_init:	
  1851                           ; 1 bytes @ 0x0
  1852                           
  1853  0070                     ??_ldra_port_init:	
  1854                           ; 1 bytes @ 0x0
  1855                           
  1856  0070                     ?_ldra_port_close:	
  1857                           ; 1 bytes @ 0x0
  1858                           
  1859  0070                     ?___bmul:	
  1860                           ; 1 bytes @ 0x0
  1861                           
  1862  0070                     ?_ldra_port_is_configured:	
  1863                           ; 1 bytes @ 0x0
  1864                           
  1865  0070                     ?_ldra_port_open:	
  1866                           ; 2 bytes @ 0x0
  1867                           
  1868  0070                     ?_main:	
  1869                           ; 2 bytes @ 0x0
  1870                           
  1871  0070                     ?___wmul:	
  1872                           ; 2 bytes @ 0x0
  1873                           
  1874  0070                     ?___awdiv:	
  1875                           ; 2 bytes @ 0x0
  1876                           
  1877  0070                     ?___awmod:	
  1878                           ; 2 bytes @ 0x0
  1879                           
  1880  0070                     ___bmul@multiplicand:	
  1881                           ; 2 bytes @ 0x0
  1882                           
  1883  0070                     ___wmul@multiplier:	
  1884                           ; 1 bytes @ 0x0
  1885                           
  1886  0070                     ___awdiv@divisor:	
  1887                           ; 2 bytes @ 0x0
  1888                           
  1889  0070                     ___awmod@divisor:	
  1890                           ; 2 bytes @ 0x0
  1891                           
  1892                           
  1893                           ; 2 bytes @ 0x0
  1894  0070                     	ds	1
  1895  0071                     ??___bmul:	
  1896                           
  1897                           ; 1 bytes @ 0x1
  1898  0071                     	ds	1
  1899  0072                     ??_ldra_port_is_configured:	
  1900  0072                     ___bmul@product:	
  1901                           ; 1 bytes @ 0x2
  1902                           
  1903  0072                     ldra_port_init@iter:	
  1904                           ; 1 bytes @ 0x2
  1905                           
  1906  0072                     ldra_upload@iter:	
  1907                           ; 2 bytes @ 0x2
  1908                           
  1909  0072                     ___wmul@multiplicand:	
  1910                           ; 2 bytes @ 0x2
  1911                           
  1912  0072                     ___awdiv@dividend:	
  1913                           ; 2 bytes @ 0x2
  1914                           
  1915  0072                     ___awmod@dividend:	
  1916                           ; 2 bytes @ 0x2
  1917                           
  1918                           
  1919                           ; 2 bytes @ 0x2
  1920  0072                     	ds	1
  1921  0073                     ___bmul@multiplier:	
  1922                           
  1923                           ; 1 bytes @ 0x3
  1924  0073                     	ds	1
  1925  0074                     ?_ldra_port_write:	
  1926  0074                     ??_ldra_port_close:	
  1927                           ; 1 bytes @ 0x4
  1928                           
  1929  0074                     ??_ldra_port_open:	
  1930                           ; 1 bytes @ 0x4
  1931                           
  1932  0074                     ??___wmul:	
  1933                           ; 1 bytes @ 0x4
  1934                           
  1935  0074                     ??___awdiv:	
  1936                           ; 1 bytes @ 0x4
  1937                           
  1938  0074                     ??___awmod:	
  1939                           ; 1 bytes @ 0x4
  1940                           
  1941  0074                     ldra_port_write@pMsg:	
  1942                           ; 1 bytes @ 0x4
  1943                           
  1944  0074                     ___wmul@product:	
  1945                           ; 2 bytes @ 0x4
  1946                           
  1947                           
  1948                           ; 2 bytes @ 0x4
  1949  0074                     	ds	1
  1950  0075                     ___awdiv@counter:	
  1951  0075                     ___awmod@counter:	
  1952                           ; 1 bytes @ 0x5
  1953                           
  1954                           
  1955                           ; 1 bytes @ 0x5
  1956  0075                     	ds	1
  1957  0076                     ??_ldra_port_write:	
  1958  0076                     ___awdiv@sign:	
  1959                           ; 1 bytes @ 0x6
  1960                           
  1961  0076                     ___awmod@sign:	
  1962                           ; 1 bytes @ 0x6
  1963                           
  1964                           
  1965                           ; 1 bytes @ 0x6
  1966  0076                     	ds	1
  1967  0077                     ___awdiv@quotient:	
  1968                           
  1969                           ; 2 bytes @ 0x7
  1970  0077                     	ds	2
  1971  0079                     ?_ldra_int_to_dec:	
  1972  0079                     ldra_int_to_dec@val:	
  1973                           ; 1 bytes @ 0x9
  1974                           
  1975                           
  1976                           ; 2 bytes @ 0x9
  1977  0079                     	ds	2
  1978  007B                     ??_ldra_int_to_dec:	
  1979                           
  1980                           ; 1 bytes @ 0xB
  1981  007B                     	ds	2
  1982  007D                     ??_ldra_sprintf1:	
  1983  007D                     ldra_sprintf1@str:	
  1984                           ; 1 bytes @ 0xD
  1985                           
  1986                           
  1987                           ; 1 bytes @ 0xD
  1988  007D                     	ds	1
  1989                           
  1990                           	psect	cstackBANK0
  1991  0020                     __pcstackBANK0:	
  1992  0020                     ldra_int_to_dec@neg:	
  1993                           
  1994                           ; 2 bytes @ 0x0
  1995  0020                     	ds	2
  1996  0022                     ldra_int_to_dec@str:	
  1997                           
  1998                           ; 1 bytes @ 0x2
  1999  0022                     	ds	1
  2000  0023                     ?_ldra_sprintf:	
  2001  0023                     ldra_sprintf@format:	
  2002                           ; 1 bytes @ 0x3
  2003                           
  2004                           
  2005                           ; 2 bytes @ 0x3
  2006  0023                     	ds	2
  2007  0025                     ldra_sprintf@cnt:	
  2008                           
  2009                           ; 2 bytes @ 0x5
  2010  0025                     	ds	2
  2011  0027                     ldra_sprintf@d1:	
  2012                           
  2013                           ; 2 bytes @ 0x7
  2014  0027                     	ds	2
  2015  0029                     ldra_sprintf@d2:	
  2016                           
  2017                           ; 2 bytes @ 0x9
  2018  0029                     	ds	2
  2019  002B                     ldra_sprintf@d3:	
  2020                           
  2021                           ; 2 bytes @ 0xB
  2022  002B                     	ds	2
  2023  002D                     ldra_sprintf@d4:	
  2024                           
  2025                           ; 2 bytes @ 0xD
  2026  002D                     	ds	2
  2027  002F                     ??_ldra_sprintf:	
  2028                           
  2029                           ; 1 bytes @ 0xF
  2030  002F                     	ds	4
  2031  0033                     ldra_sprintf@d:	
  2032                           
  2033                           ; 8 bytes @ 0x13
  2034  0033                     	ds	8
  2035  003B                     ldra_sprintf@max:	
  2036                           
  2037                           ; 2 bytes @ 0x1B
  2038  003B                     	ds	2
  2039  003D                     ldra_sprintf@width:	
  2040                           
  2041                           ; 2 bytes @ 0x1D
  2042  003D                     	ds	2
  2043  003F                     ldra_sprintf@digits:	
  2044                           
  2045                           ; 2 bytes @ 0x1F
  2046  003F                     	ds	2
  2047  0041                     ldra_sprintf@str:	
  2048                           
  2049                           ; 1 bytes @ 0x21
  2050  0041                     	ds	1
  2051  0042                     ?_ldra_sprintf1:	
  2052  0042                     ldra_sprintf1@format:	
  2053                           ; 1 bytes @ 0x22
  2054                           
  2055                           
  2056                           ; 2 bytes @ 0x22
  2057  0042                     	ds	2
  2058  0044                     ldra_sprintf1@d1:	
  2059                           
  2060                           ; 2 bytes @ 0x24
  2061  0044                     	ds	2
  2062  0046                     ??_main:	
  2063                           
  2064                           ; 1 bytes @ 0x26
  2065  0046                     	ds	1
  2066                           
  2067                           	psect	maintext
  2068  0527                     __pmaintext:	
  2069 ;;
  2070 ;;Main: autosize = 0, tempsize = 1, incstack = 0, save=0
  2071 ;;
  2072 ;; *************** function _main *****************
  2073 ;; Defined at:
  2074 ;;		line 13 in file "main.c"
  2075 ;; Parameters:    Size  Location     Type
  2076 ;;		None
  2077 ;; Auto vars:     Size  Location     Type
  2078 ;;  msg            64    0[BANK1 ] unsigned char [64]
  2079 ;;  count           2   64[BANK1 ] int 
  2080 ;; Return value:  Size  Location     Type
  2081 ;;                  2  113[None  ] int 
  2082 ;; Registers used:
  2083 ;;		wreg, fsr0l, fsr0h, fsr1l, fsr1h, status,2, status,0, pclath, cstack
  2084 ;; Tracked objects:
  2085 ;;		On entry : B1F/0
  2086 ;;		On exit  : 0/0
  2087 ;;		Unchanged: 0/0
  2088 ;; Data sizes:     COMMON   BANK0   BANK1   BANK2   BANK3   BANK4   BANK5   BANK6   BANK7   BANK8   BANK9  BANK10  BANK1
      +1  BANK12  BANK13  BANK14  BANK15  BANK16  BANK17  BANK18  BANK19  BANK20  BANK21  BANK22  BANK23  BANK24  BANK25
  2089 ;;      Params:         0       0       0       0       0       0       0       0       0       0       0       0       
      +0       0       0       0       0       0       0       0       0       0       0       0       0       0       0
  2090 ;;      Locals:         0       0      66       0       0       0       0       0       0       0       0       0       
      +0       0       0       0       0       0       0       0       0       0       0       0       0       0       0
  2091 ;;      Temps:          0       1       0       0       0       0       0       0       0       0       0       0       
      +0       0       0       0       0       0       0       0       0       0       0       0       0       0       0
  2092 ;;      Totals:         0       1      66       0       0       0       0       0       0       0       0       0       
      +0       0       0       0       0       0       0       0       0       0       0       0       0       0       0
  2093 ;;Total ram usage:       67 bytes
  2094 ;; Hardware stack levels required when called:    4
  2095 ;; This function calls:
  2096 ;;		_ldra_port_close
  2097 ;;		_ldra_port_open
  2098 ;;		_ldra_port_write
  2099 ;;		_ldra_sprintf1
  2100 ;; This function is called by:
  2101 ;;		Startup code after reset
  2102 ;; This function uses a non-reentrant model
  2103 ;;
  2104                           
  2105                           
  2106                           ;psect for function _main
  2107  0527                     _main:	
  2108                           
  2109                           ;main.c: 14:   char msg[64];;main.c: 15:   int count=0;
  2110                           
  2111                           ;incstack = 0
  2112                           ; Regs used in _main: [wreg-fsr1h+status,2+status,0+pclath+cstack]
  2113  0527  0021               	movlb	1	; select bank1
  2114  0528  01E0               	clrf	main@count^(0+128)
  2115  0529  01E1               	clrf	(main@count+1)^(0+128)
  2116                           
  2117                           ;main.c: 17:   ldra_port_open();
  2118  052A  3183  2362  3185   	fcall	_ldra_port_open
  2119                           
  2120                           ;main.c: 18:   ldra_port_write (CPU);
  2121  052D  30ED               	movlw	low (_CPU| (0+32768))
  2122  052E  00F4               	movwf	ldra_port_write@pMsg
  2123  052F  3089               	movlw	high (_CPU| (0+32768))
  2124  0530  00F5               	movwf	ldra_port_write@pMsg+1
  2125  0531  3184  2442  3185   	fcall	_ldra_port_write
  2126                           
  2127                           ;main.c: 19:   (void)ldra_sprintf1 ( msg, "CHAR_BIT = %2d\n\n", 8 );
  2128  0534  3001               	movlw	low (STR_1| (0+32768))
  2129  0535  0020               	movlb	0	; select bank0
  2130  0536  00C2               	movwf	ldra_sprintf1@format
  2131  0537  308A               	movlw	high (STR_1| (0+32768))
  2132  0538  00C3               	movwf	ldra_sprintf1@format+1
  2133  0539  3008               	movlw	8
  2134  053A  00C4               	movwf	ldra_sprintf1@d1
  2135  053B  3000               	movlw	0
  2136  053C  00C5               	movwf	ldra_sprintf1@d1+1
  2137  053D  30A0               	movlw	(low (main@msg| 0))& (0+255)
  2138  053E  3183  2396  3185   	fcall	_ldra_sprintf1
  2139                           
  2140                           ;main.c: 20:   ldra_port_write (msg);
  2141  0541  30A0               	movlw	low main@msg
  2142  0542  00F4               	movwf	ldra_port_write@pMsg
  2143  0543  3000               	movlw	high main@msg
  2144  0544  00F5               	movwf	ldra_port_write@pMsg+1
  2145  0545  3184  2442  3185   	fcall	_ldra_port_write
  2146                           
  2147                           ;main.c: 22:   ldra_port_write ( "<lang>vals.dat\n" );
  2148  0548  3012               	movlw	low (STR_2| (0+32768))
  2149  0549  00F4               	movwf	ldra_port_write@pMsg
  2150  054A  308A               	movlw	high (STR_2| (0+32768))
  2151  054B  00F5               	movwf	ldra_port_write@pMsg+1
  2152  054C  3184  2442  3185   	fcall	_ldra_port_write
  2153                           
  2154                           ;main.c: 23:   ldra_port_write ( "==============\n\n" );
  2155  054F  30C6               	movlw	low ((STR_15+6)| (0+32768))
  2156  0550  00F4               	movwf	ldra_port_write@pMsg
  2157  0551  3089               	movlw	high ((STR_15+6)| (0+32768))
  2158  0552  00F5               	movwf	ldra_port_write@pMsg+1
  2159  0553  3184  2442  3185   	fcall	_ldra_port_write
  2160                           
  2161                           ;main.c: 24:   (void)ldra_sprintf1 ( msg, "127%5d      char - length in bytes.\n", sizeo
      +                          f(char) );
  2162  0556  3077               	movlw	low (STR_4| (0+32768))
  2163  0557  0020               	movlb	0	; select bank0
  2164  0558  00C2               	movwf	ldra_sprintf1@format
  2165  0559  3089               	movlw	high (STR_4| (0+32768))
  2166  055A  00C3               	movwf	ldra_sprintf1@format+1
  2167  055B  3001               	movlw	1
  2168  055C  00C4               	movwf	ldra_sprintf1@d1
  2169  055D  3000               	movlw	0
  2170  055E  00C5               	movwf	ldra_sprintf1@d1+1
  2171  055F  30A0               	movlw	(low (main@msg| 0))& (0+255)
  2172  0560  3183  2396  3185   	fcall	_ldra_sprintf1
  2173                           
  2174                           ;main.c: 25:   ldra_port_write (msg);
  2175  0563  30A0               	movlw	low main@msg
  2176  0564  00F4               	movwf	ldra_port_write@pMsg
  2177  0565  3000               	movlw	high main@msg
  2178  0566  00F5               	movwf	ldra_port_write@pMsg+1
  2179  0567  3184  2442  3185   	fcall	_ldra_port_write
  2180                           
  2181                           ;main.c: 26:   (void)ldra_sprintf1 ( msg, "128%5d      short - length in bytes.\n", size
      +                          of(short) );
  2182  056A  302C               	movlw	low (STR_5| (0+32768))
  2183  056B  0020               	movlb	0	; select bank0
  2184  056C  00C2               	movwf	ldra_sprintf1@format
  2185  056D  3089               	movlw	high (STR_5| (0+32768))
  2186  056E  00C3               	movwf	ldra_sprintf1@format+1
  2187  056F  3002               	movlw	2
  2188  0570  00C4               	movwf	ldra_sprintf1@d1
  2189  0571  3000               	movlw	0
  2190  0572  00C5               	movwf	ldra_sprintf1@d1+1
  2191  0573  30A0               	movlw	(low (main@msg| 0))& (0+255)
  2192  0574  3183  2396  3185   	fcall	_ldra_sprintf1
  2193                           
  2194                           ;main.c: 27:   ldra_port_write (msg);
  2195  0577  30A0               	movlw	low main@msg
  2196  0578  00F4               	movwf	ldra_port_write@pMsg
  2197  0579  3000               	movlw	high main@msg
  2198  057A  00F5               	movwf	ldra_port_write@pMsg+1
  2199  057B  3184  2442  3185   	fcall	_ldra_port_write
  2200                           
  2201                           ;main.c: 28:   (void)ldra_sprintf1 ( msg, "129%5d      int - length in bytes.\n", sizeof
      +                          (int) );
  2202  057E  309C               	movlw	low (STR_6| (0+32768))
  2203  057F  0020               	movlb	0	; select bank0
  2204  0580  00C2               	movwf	ldra_sprintf1@format
  2205  0581  3089               	movlw	high (STR_6| (0+32768))
  2206  0582  00C3               	movwf	ldra_sprintf1@format+1
  2207  0583  3002               	movlw	2
  2208  0584  00C4               	movwf	ldra_sprintf1@d1
  2209  0585  3000               	movlw	0
  2210  0586  00C5               	movwf	ldra_sprintf1@d1+1
  2211  0587  30A0               	movlw	(low (main@msg| 0))& (0+255)
  2212  0588  3183  2396  3185   	fcall	_ldra_sprintf1
  2213                           
  2214                           ;main.c: 29:   ldra_port_write (msg);
  2215  058B  30A0               	movlw	low main@msg
  2216  058C  00F4               	movwf	ldra_port_write@pMsg
  2217  058D  3000               	movlw	high main@msg
  2218  058E  00F5               	movwf	ldra_port_write@pMsg+1
  2219  058F  3184  2442  3185   	fcall	_ldra_port_write
  2220                           
  2221                           ;main.c: 30:   (void)ldra_sprintf1 ( msg, "130%5d      long - length in bytes.\n", sizeo
      +                          f(long) );
  2222  0592  3052               	movlw	low (STR_7| (0+32768))
  2223  0593  0020               	movlb	0	; select bank0
  2224  0594  00C2               	movwf	ldra_sprintf1@format
  2225  0595  3089               	movlw	high (STR_7| (0+32768))
  2226  0596  00C3               	movwf	ldra_sprintf1@format+1
  2227  0597  3004               	movlw	4
  2228  0598  00C4               	movwf	ldra_sprintf1@d1
  2229  0599  3000               	movlw	0
  2230  059A  00C5               	movwf	ldra_sprintf1@d1+1
  2231  059B  30A0               	movlw	(low (main@msg| 0))& (0+255)
  2232  059C  3183  2396  3185   	fcall	_ldra_sprintf1
  2233                           
  2234                           ;main.c: 31:   ldra_port_write (msg);
  2235  059F  30A0               	movlw	low main@msg
  2236  05A0  00F4               	movwf	ldra_port_write@pMsg
  2237  05A1  3000               	movlw	high main@msg
  2238  05A2  00F5               	movwf	ldra_port_write@pMsg+1
  2239  05A3  3184  2442  3185   	fcall	_ldra_port_write
  2240                           
  2241                           ;main.c: 32:   (void)ldra_sprintf1 ( msg, "131%5d      float - length in bytes.\n", size
      +                          of(float) );
  2242  05A6  3006               	movlw	low (STR_8| (0+32768))
  2243  05A7  0020               	movlb	0	; select bank0
  2244  05A8  00C2               	movwf	ldra_sprintf1@format
  2245  05A9  3089               	movlw	high (STR_8| (0+32768))
  2246  05AA  00C3               	movwf	ldra_sprintf1@format+1
  2247  05AB  3004               	movlw	4
  2248  05AC  00C4               	movwf	ldra_sprintf1@d1
  2249  05AD  3000               	movlw	0
  2250  05AE  00C5               	movwf	ldra_sprintf1@d1+1
  2251  05AF  30A0               	movlw	(low (main@msg| 0))& (0+255)
  2252  05B0  3183  2396  3185   	fcall	_ldra_sprintf1
  2253                           
  2254                           ;main.c: 33:   ldra_port_write (msg);
  2255  05B3  30A0               	movlw	low main@msg
  2256  05B4  00F4               	movwf	ldra_port_write@pMsg
  2257  05B5  3000               	movlw	high main@msg
  2258  05B6  00F5               	movwf	ldra_port_write@pMsg+1
  2259  05B7  3184  2442  3185   	fcall	_ldra_port_write
  2260                           
  2261                           ;main.c: 34:   (void)ldra_sprintf1 ( msg, "132%5d      double - length in bytes.\n", siz
      +                          eof(double) );
  2262  05BA  30DF               	movlw	low (STR_9| (0+32768))
  2263  05BB  0020               	movlb	0	; select bank0
  2264  05BC  00C2               	movwf	ldra_sprintf1@format
  2265  05BD  3088               	movlw	high (STR_9| (0+32768))
  2266  05BE  00C3               	movwf	ldra_sprintf1@format+1
  2267  05BF  3004               	movlw	4
  2268  05C0  00C4               	movwf	ldra_sprintf1@d1
  2269  05C1  3000               	movlw	0
  2270  05C2  00C5               	movwf	ldra_sprintf1@d1+1
  2271  05C3  30A0               	movlw	(low (main@msg| 0))& (0+255)
  2272  05C4  3183  2396  3185   	fcall	_ldra_sprintf1
  2273                           
  2274                           ;main.c: 35:   ldra_port_write (msg);
  2275  05C7  30A0               	movlw	low main@msg
  2276  05C8  00F4               	movwf	ldra_port_write@pMsg
  2277  05C9  3000               	movlw	high main@msg
  2278  05CA  00F5               	movwf	ldra_port_write@pMsg+1
  2279  05CB  3184  2442  3185   	fcall	_ldra_port_write
  2280                           
  2281                           ;main.c: 36:   (void)ldra_sprintf1 ( msg, "133%5d      long double - length in bytes.\n"
      +                          , sizeof(long double) );
  2282  05CE  3061               	movlw	low (STR_10| (0+32768))
  2283  05CF  0020               	movlb	0	; select bank0
  2284  05D0  00C2               	movwf	ldra_sprintf1@format
  2285  05D1  3088               	movlw	high (STR_10| (0+32768))
  2286  05D2  00C3               	movwf	ldra_sprintf1@format+1
  2287  05D3  3004               	movlw	4
  2288  05D4  00C4               	movwf	ldra_sprintf1@d1
  2289  05D5  3000               	movlw	0
  2290  05D6  00C5               	movwf	ldra_sprintf1@d1+1
  2291  05D7  30A0               	movlw	(low (main@msg| 0))& (0+255)
  2292  05D8  3183  2396  3185   	fcall	_ldra_sprintf1
  2293                           
  2294                           ;main.c: 37:   ldra_port_write (msg);
  2295  05DB  30A0               	movlw	low main@msg
  2296  05DC  00F4               	movwf	ldra_port_write@pMsg
  2297  05DD  3000               	movlw	high main@msg
  2298  05DE  00F5               	movwf	ldra_port_write@pMsg+1
  2299  05DF  3184  2442  3185   	fcall	_ldra_port_write
  2300                           
  2301                           ;main.c: 38:   (void)ldra_sprintf1 ( msg, "134%5d      pointer to any type - length in b
      +                          ytes.\n", sizeof(void*) );
  2302  05E2  3000               	movlw	low (STR_11| (0+32768))
  2303  05E3  0020               	movlb	0	; select bank0
  2304  05E4  00C2               	movwf	ldra_sprintf1@format
  2305  05E5  3088               	movlw	high (STR_11| (0+32768))
  2306  05E6  00C3               	movwf	ldra_sprintf1@format+1
  2307  05E7  3002               	movlw	2
  2308  05E8  00C4               	movwf	ldra_sprintf1@d1
  2309  05E9  3000               	movlw	0
  2310  05EA  00C5               	movwf	ldra_sprintf1@d1+1
  2311  05EB  30A0               	movlw	(low (main@msg| 0))& (0+255)
  2312  05EC  3183  2396  3185   	fcall	_ldra_sprintf1
  2313                           
  2314                           ;main.c: 39:   ldra_port_write (msg);
  2315  05EF  30A0               	movlw	low main@msg
  2316  05F0  00F4               	movwf	ldra_port_write@pMsg
  2317  05F1  3000               	movlw	high main@msg
  2318  05F2  00F5               	movwf	ldra_port_write@pMsg+1
  2319  05F3  3184  2442  3185   	fcall	_ldra_port_write
  2320                           
  2321                           ;main.c: 40:   (void)ldra_sprintf1 ( msg, "197%5d      long long - length in bytes.\n", 
      +                          sizeof(long long) );
  2322  05F6  308D               	movlw	low (STR_12| (0+32768))
  2323  05F7  0020               	movlb	0	; select bank0
  2324  05F8  00C2               	movwf	ldra_sprintf1@format
  2325  05F9  3088               	movlw	high (STR_12| (0+32768))
  2326  05FA  00C3               	movwf	ldra_sprintf1@format+1
  2327  05FB  3008               	movlw	8
  2328  05FC  00C4               	movwf	ldra_sprintf1@d1
  2329  05FD  3000               	movlw	0
  2330  05FE  00C5               	movwf	ldra_sprintf1@d1+1
  2331  05FF  30A0               	movlw	(low (main@msg| 0))& (0+255)
  2332  0600  3183  2396  3185   	fcall	_ldra_sprintf1
  2333                           
  2334                           ;main.c: 41:   ldra_port_write (msg);
  2335  0603  30A0               	movlw	low main@msg
  2336  0604  00F4               	movwf	ldra_port_write@pMsg
  2337  0605  3000               	movlw	high main@msg
  2338  0606  00F5               	movwf	ldra_port_write@pMsg+1
  2339  0607  3184  2442  3185   	fcall	_ldra_port_write
  2340                           
  2341                           ;main.c: 42:   (void)ldra_sprintf1 ( msg, "382%5d      number of bits in a byte.\n\n", 8
      +                           );
  2342  060A  30B7               	movlw	low (STR_13| (0+32768))
  2343  060B  0020               	movlb	0	; select bank0
  2344  060C  00C2               	movwf	ldra_sprintf1@format
  2345  060D  3088               	movlw	high (STR_13| (0+32768))
  2346  060E  00C3               	movwf	ldra_sprintf1@format+1
  2347  060F  3008               	movlw	8
  2348  0610  00C4               	movwf	ldra_sprintf1@d1
  2349  0611  3000               	movlw	0
  2350  0612  00C5               	movwf	ldra_sprintf1@d1+1
  2351  0613  30A0               	movlw	(low (main@msg| 0))& (0+255)
  2352  0614  3183  2396  3185   	fcall	_ldra_sprintf1
  2353                           
  2354                           ;main.c: 43:   ldra_port_write (msg);
  2355  0617  30A0               	movlw	low main@msg
  2356  0618  00F4               	movwf	ldra_port_write@pMsg
  2357  0619  3000               	movlw	high main@msg
  2358  061A  00F5               	movwf	ldra_port_write@pMsg+1
  2359  061B  3184  2442  3185   	fcall	_ldra_port_write
  2360                           
  2361                           ;main.c: 45:   ldra_port_write ( "Quick Brown Fox Test\n" );
  2362  061E  30D7               	movlw	low (STR_14| (0+32768))
  2363  061F  00F4               	movwf	ldra_port_write@pMsg
  2364  0620  3089               	movlw	high (STR_14| (0+32768))
  2365  0621  00F5               	movwf	ldra_port_write@pMsg+1
  2366  0622  3184  2442  3185   	fcall	_ldra_port_write
  2367                           
  2368                           ;main.c: 46:   ldra_port_write ( "====================\n\n" );
  2369  0625  30C0               	movlw	low (STR_15| (0+32768))
  2370  0626  00F4               	movwf	ldra_port_write@pMsg
  2371  0627  3089               	movlw	high (STR_15| (0+32768))
  2372  0628  00F5               	movwf	ldra_port_write@pMsg+1
  2373  0629  3184  2442  3185   	fcall	_ldra_port_write
  2374  062C                     l1469:	
  2375                           ;main.c: 47:   while ( count < 25 ) {
  2376                           
  2377                           
  2378                           ;main.c: 47:   while ( count < 25 ) {
  2379  062C  0021               	movlb	1	; select bank1
  2380  062D  0861               	movf	(main@count+1)^(0+128),w
  2381  062E  3A80               	xorlw	128
  2382  062F  0020               	movlb	0	; select bank0
  2383  0630  00C6               	movwf	??_main
  2384  0631  3080               	movlw	128
  2385  0632  0246               	subwf	??_main,w
  2386  0633  1D03               	skipz
  2387  0634  2E38               	goto	u1045
  2388  0635  3019               	movlw	25
  2389  0636  0021               	movlb	1	; select bank1
  2390  0637  0260               	subwf	main@count^(0+128),w
  2391  0638                     u1045:	
  2392  0638  1803               	btfsc	3,0
  2393  0639  2E5F               	goto	l1471
  2394                           
  2395                           ;main.c: 48:     (void)ldra_sprintf1 ( msg, "%4d : ", count);
  2396  063A  3022               	movlw	low (STR_16| (0+32768))
  2397  063B  0020               	movlb	0	; select bank0
  2398  063C  00C2               	movwf	ldra_sprintf1@format
  2399  063D  308A               	movlw	high (STR_16| (0+32768))
  2400  063E  00C3               	movwf	ldra_sprintf1@format+1
  2401  063F  0021               	movlb	1	; select bank1
  2402  0640  0861               	movf	(main@count+1)^(0+128),w
  2403  0641  0020               	movlb	0	; select bank0
  2404  0642  00C5               	movwf	ldra_sprintf1@d1+1
  2405  0643  0021               	movlb	1	; select bank1
  2406  0644  0860               	movf	main@count^(0+128),w
  2407  0645  0020               	movlb	0	; select bank0
  2408  0646  00C4               	movwf	ldra_sprintf1@d1
  2409  0647  30A0               	movlw	(low (main@msg| 0))& (0+255)
  2410  0648  3183  2396  3185   	fcall	_ldra_sprintf1
  2411                           
  2412                           ;main.c: 49:     ldra_port_write (msg);
  2413  064B  30A0               	movlw	low main@msg
  2414  064C  00F4               	movwf	ldra_port_write@pMsg
  2415  064D  3000               	movlw	high main@msg
  2416  064E  00F5               	movwf	ldra_port_write@pMsg+1
  2417  064F  3184  2442  3185   	fcall	_ldra_port_write
  2418                           
  2419                           ;main.c: 50:     ldra_port_write ( "The quick brown fox jumps over the lazy dog\n" );
  2420  0652  3034               	movlw	low (STR_17| (0+32768))
  2421  0653  00F4               	movwf	ldra_port_write@pMsg
  2422  0654  3088               	movlw	high (STR_17| (0+32768))
  2423  0655  00F5               	movwf	ldra_port_write@pMsg+1
  2424  0656  3184  2442  3185   	fcall	_ldra_port_write
  2425                           
  2426                           ;main.c: 51:     count++;
  2427  0659  3001               	movlw	1
  2428  065A  0021               	movlb	1	; select bank1
  2429  065B  07E0               	addwf	main@count^(0+128),f
  2430  065C  3000               	movlw	0
  2431  065D  3DE1               	addwfc	(main@count+1)^(0+128),f
  2432  065E  2E2C               	goto	l1469
  2433  065F                     l1471:	
  2434                           
  2435                           ;main.c: 53:   ldra_port_close();
  2436  065F  3183  233A         	fcall	_ldra_port_close
  2437  0661  3180  2802         	ljmp	start
  2438  0663                     __end_of_main:	
  2439                           
  2440                           	psect	text1
  2441  0396                     __ptext1:	
  2442 ;; *************** function _ldra_sprintf1 *****************
  2443 ;; Defined at:
  2444 ;;		line 131 in file "C:\LDRA_Toolsuite\Compiler_spec\Microchip\xc8\ldra_port_common.c"
  2445 ;; Parameters:    Size  Location     Type
  2446 ;;  str             1    wreg     PTR unsigned char 
  2447 ;;		 -> main@msg(64), 
  2448 ;;  format          2   34[BANK0 ] PTR const unsigned char 
  2449 ;;		 -> STR_16(7), STR_13(40), STR_12(42), STR_11(52), 
  2450 ;;		 -> STR_10(44), STR_9(39), STR_8(38), STR_7(37), 
  2451 ;;		 -> STR_6(36), STR_5(38), STR_4(37), STR_1(17), 
  2452 ;;  d1              2   36[BANK0 ] const int 
  2453 ;; Auto vars:     Size  Location     Type
  2454 ;;  str             1   13[COMMON] PTR unsigned char 
  2455 ;;		 -> main@msg(64), 
  2456 ;; Return value:  Size  Location     Type
  2457 ;;                  1    wreg      PTR unsigned char 
  2458 ;; Registers used:
  2459 ;;		wreg, fsr0l, fsr0h, fsr1l, fsr1h, status,2, status,0, pclath, cstack
  2460 ;; Tracked objects:
  2461 ;;		On entry : 0/0
  2462 ;;		On exit  : 0/0
  2463 ;;		Unchanged: 0/0
  2464 ;; Data sizes:     COMMON   BANK0   BANK1   BANK2   BANK3   BANK4   BANK5   BANK6   BANK7   BANK8   BANK9  BANK10  BANK1
      +1  BANK12  BANK13  BANK14  BANK15  BANK16  BANK17  BANK18  BANK19  BANK20  BANK21  BANK22  BANK23  BANK24  BANK25
  2465 ;;      Params:         0       4       0       0       0       0       0       0       0       0       0       0       
      +0       0       0       0       0       0       0       0       0       0       0       0       0       0       0
  2466 ;;      Locals:         1       0       0       0       0       0       0       0       0       0       0       0       
      +0       0       0       0       0       0       0       0       0       0       0       0       0       0       0
  2467 ;;      Temps:          0       0       0       0       0       0       0       0       0       0       0       0       
      +0       0       0       0       0       0       0       0       0       0       0       0       0       0       0
  2468 ;;      Totals:         1       4       0       0       0       0       0       0       0       0       0       0       
      +0       0       0       0       0       0       0       0       0       0       0       0       0       0       0
  2469 ;;Total ram usage:        5 bytes
  2470 ;; Hardware stack levels used:    1
  2471 ;; Hardware stack levels required when called:    3
  2472 ;; This function calls:
  2473 ;;		_ldra_sprintf
  2474 ;; This function is called by:
  2475 ;;		_main
  2476 ;; This function uses a non-reentrant model
  2477 ;;
  2478                           
  2479                           
  2480                           ;psect for function _ldra_sprintf1
  2481  0396                     _ldra_sprintf1:	
  2482                           
  2483                           ;incstack = 0
  2484                           ; Regs used in _ldra_sprintf1: [wreg-fsr1h+status,2+status,0+pclath+cstack]
  2485                           ;ldra_sprintf1@str stored from wreg
  2486  0396  00FD               	movwf	ldra_sprintf1@str
  2487                           
  2488                           ;C:\LDRA_Toolsuite\Compiler_spec\Microchip\xc8\ldra_port_common.c: 132:   ldra_sprintf(s
      +                          tr, format, 1, d1, d1, d1, d1);
  2489  0397  0020               	movlb	0	; select bank0
  2490  0398  0843               	movf	ldra_sprintf1@format+1,w
  2491  0399  00A4               	movwf	ldra_sprintf@format+1
  2492  039A  0842               	movf	ldra_sprintf1@format,w
  2493  039B  00A3               	movwf	ldra_sprintf@format
  2494  039C  3001               	movlw	1
  2495  039D  00A5               	movwf	ldra_sprintf@cnt
  2496  039E  3000               	movlw	0
  2497  039F  00A6               	movwf	ldra_sprintf@cnt+1
  2498  03A0  0845               	movf	ldra_sprintf1@d1+1,w
  2499  03A1  00A8               	movwf	ldra_sprintf@d1+1
  2500  03A2  0844               	movf	ldra_sprintf1@d1,w
  2501  03A3  00A7               	movwf	ldra_sprintf@d1
  2502  03A4  0845               	movf	ldra_sprintf1@d1+1,w
  2503  03A5  00AA               	movwf	ldra_sprintf@d2+1
  2504  03A6  0844               	movf	ldra_sprintf1@d1,w
  2505  03A7  00A9               	movwf	ldra_sprintf@d2
  2506  03A8  0845               	movf	ldra_sprintf1@d1+1,w
  2507  03A9  00AC               	movwf	ldra_sprintf@d3+1
  2508  03AA  0844               	movf	ldra_sprintf1@d1,w
  2509  03AB  00AB               	movwf	ldra_sprintf@d3
  2510  03AC  0845               	movf	ldra_sprintf1@d1+1,w
  2511  03AD  00AE               	movwf	ldra_sprintf@d4+1
  2512  03AE  0844               	movf	ldra_sprintf1@d1,w
  2513  03AF  00AD               	movwf	ldra_sprintf@d4
  2514  03B0  087D               	movf	ldra_sprintf1@str,w
  2515  03B1  3186  2663         	fcall	_ldra_sprintf
  2516  03B3  0008               	return
  2517  03B4                     __end_of_ldra_sprintf1:	
  2518                           
  2519                           	psect	text2
  2520  0663                     __ptext2:	
  2521 ;; *************** function _ldra_sprintf *****************
  2522 ;; Defined at:
  2523 ;;		line 54 in file "C:\LDRA_Toolsuite\Compiler_spec\Microchip\xc8\ldra_port_common.c"
  2524 ;; Parameters:    Size  Location     Type
  2525 ;;  str             1    wreg     PTR unsigned char 
  2526 ;;		 -> main@msg(64), 
  2527 ;;  format          2    3[BANK0 ] PTR const unsigned char 
  2528 ;;		 -> STR_16(7), STR_13(40), STR_12(42), STR_11(52), 
  2529 ;;		 -> STR_10(44), STR_9(39), STR_8(38), STR_7(37), 
  2530 ;;		 -> STR_6(36), STR_5(38), STR_4(37), STR_1(17), 
  2531 ;;  cnt             2    5[BANK0 ] int 
  2532 ;;  d1              2    7[BANK0 ] const int 
  2533 ;;  d2              2    9[BANK0 ] const int 
  2534 ;;  d3              2   11[BANK0 ] const int 
  2535 ;;  d4              2   13[BANK0 ] const int 
  2536 ;; Auto vars:     Size  Location     Type
  2537 ;;  str             1   33[BANK0 ] PTR unsigned char 
  2538 ;;		 -> main@msg(64), 
  2539 ;;  d               8   19[BANK0 ] int [4]
  2540 ;;  digits          2   31[BANK0 ] int 
  2541 ;;  width           2   29[BANK0 ] int 
  2542 ;;  max             2   27[BANK0 ] int 
  2543 ;; Return value:  Size  Location     Type
  2544 ;;                  1    wreg      void 
  2545 ;; Registers used:
  2546 ;;		wreg, fsr0l, fsr0h, fsr1l, fsr1h, status,2, status,0, pclath, cstack
  2547 ;; Tracked objects:
  2548 ;;		On entry : 0/0
  2549 ;;		On exit  : 0/0
  2550 ;;		Unchanged: 0/0
  2551 ;; Data sizes:     COMMON   BANK0   BANK1   BANK2   BANK3   BANK4   BANK5   BANK6   BANK7   BANK8   BANK9  BANK10  BANK1
      +1  BANK12  BANK13  BANK14  BANK15  BANK16  BANK17  BANK18  BANK19  BANK20  BANK21  BANK22  BANK23  BANK24  BANK25
  2552 ;;      Params:         0      12       0       0       0       0       0       0       0       0       0       0       
      +0       0       0       0       0       0       0       0       0       0       0       0       0       0       0
  2553 ;;      Locals:         0      15       0       0       0       0       0       0       0       0       0       0       
      +0       0       0       0       0       0       0       0       0       0       0       0       0       0       0
  2554 ;;      Temps:          0       4       0       0       0       0       0       0       0       0       0       0       
      +0       0       0       0       0       0       0       0       0       0       0       0       0       0       0
  2555 ;;      Totals:         0      31       0       0       0       0       0       0       0       0       0       0       
      +0       0       0       0       0       0       0       0       0       0       0       0       0       0       0
  2556 ;;Total ram usage:       31 bytes
  2557 ;; Hardware stack levels used:    1
  2558 ;; Hardware stack levels required when called:    2
  2559 ;; This function calls:
  2560 ;;		___awdiv
  2561 ;;		___bmul
  2562 ;;		___wmul
  2563 ;;		_ldra_int_to_dec
  2564 ;; This function is called by:
  2565 ;;		_ldra_sprintf1
  2566 ;;		_ldra_sprintf2
  2567 ;;		_ldra_sprintf3
  2568 ;;		_ldra_sprintf4
  2569 ;; This function uses a non-reentrant model
  2570 ;;
  2571                           
  2572                           
  2573                           ;psect for function _ldra_sprintf
  2574  0663                     _ldra_sprintf:	
  2575                           
  2576                           ;incstack = 0
  2577                           ; Regs used in _ldra_sprintf: [wreg-fsr1h+status,2+status,0+pclath+cstack]
  2578                           ;ldra_sprintf@str stored from wreg
  2579  0663  0020               	movlb	0	; select bank0
  2580  0664  00C1               	movwf	ldra_sprintf@str
  2581                           
  2582                           ;C:\LDRA_Toolsuite\Compiler_spec\Microchip\xc8\ldra_port_common.c: 55:   int width;;C:\L
      +                          DRA_Toolsuite\Compiler_spec\Microchip\xc8\ldra_port_common.c: 56:   int digits;;C:\LDRA_
      +                          Toolsuite\Compiler_spec\Microchip\xc8\ldra_port_common.c: 57:   int d[4];;C:\LDRA_Toolsu
      +                          ite\Compiler_spec\Microchip\xc8\ldra_port_common.c: 58:   int max = cnt;
  2583  0665  0826               	movf	ldra_sprintf@cnt+1,w
  2584  0666  00BC               	movwf	ldra_sprintf@max+1
  2585  0667  0825               	movf	ldra_sprintf@cnt,w
  2586  0668  00BB               	movwf	ldra_sprintf@max
  2587                           
  2588                           ;C:\LDRA_Toolsuite\Compiler_spec\Microchip\xc8\ldra_port_common.c: 60:   d[0] = d1;
  2589  0669  0828               	movf	ldra_sprintf@d1+1,w
  2590  066A  00B4               	movwf	ldra_sprintf@d+1
  2591  066B  0827               	movf	ldra_sprintf@d1,w
  2592  066C  00B3               	movwf	ldra_sprintf@d
  2593                           
  2594                           ;C:\LDRA_Toolsuite\Compiler_spec\Microchip\xc8\ldra_port_common.c: 61:   d[1] = d2;
  2595  066D  082A               	movf	ldra_sprintf@d2+1,w
  2596  066E  00B6               	movwf	ldra_sprintf@d+3
  2597  066F  0829               	movf	ldra_sprintf@d2,w
  2598  0670  00B5               	movwf	ldra_sprintf@d+2
  2599                           
  2600                           ;C:\LDRA_Toolsuite\Compiler_spec\Microchip\xc8\ldra_port_common.c: 62:   d[2] = d3;
  2601  0671  082C               	movf	ldra_sprintf@d3+1,w
  2602  0672  00B8               	movwf	ldra_sprintf@d+5
  2603  0673  082B               	movf	ldra_sprintf@d3,w
  2604  0674  00B7               	movwf	ldra_sprintf@d+4
  2605                           
  2606                           ;C:\LDRA_Toolsuite\Compiler_spec\Microchip\xc8\ldra_port_common.c: 63:   d[3] = d4;
  2607  0675  082E               	movf	ldra_sprintf@d4+1,w
  2608  0676  00BA               	movwf	ldra_sprintf@d+7
  2609  0677  082D               	movf	ldra_sprintf@d4,w
  2610  0678  00B9               	movwf	ldra_sprintf@d+6
  2611                           
  2612                           ;C:\LDRA_Toolsuite\Compiler_spec\Microchip\xc8\ldra_port_common.c: 64:   if (format != 0
      +                          ) {
  2613  0679  0823               	movf	ldra_sprintf@format,w
  2614  067A  0424               	iorwf	ldra_sprintf@format+1,w
  2615  067B  1903               	btfsc	3,2
  2616  067C  2FDC               	goto	l1359
  2617  067D                     l1279:	
  2618                           
  2619                           ;C:\LDRA_Toolsuite\Compiler_spec\Microchip\xc8\ldra_port_common.c: 68:       if ((*forma
      +                          t == '%') && cnt) {
  2620  067D  0823               	movf	ldra_sprintf@format,w
  2621  067E  0084               	movwf	4
  2622  067F  0824               	movf	ldra_sprintf@format+1,w
  2623  0680  0085               	movwf	5
  2624  0681  0012               	moviw fsr0++
  2625  0682  3A25               	xorlw	37
  2626  0683  1D03               	btfss	3,2
  2627  0684  2FC2               	goto	l1351
  2628  0685  0825               	movf	ldra_sprintf@cnt,w
  2629  0686  0426               	iorwf	ldra_sprintf@cnt+1,w
  2630  0687  1903               	btfsc	3,2
  2631  0688  2FC2               	goto	l1351
  2632                           
  2633                           ;C:\LDRA_Toolsuite\Compiler_spec\Microchip\xc8\ldra_port_common.c: 69:         ++format;
  2634  0689  3001               	movlw	1
  2635  068A  07A3               	addwf	ldra_sprintf@format,f
  2636  068B  3000               	movlw	0
  2637  068C  3DA4               	addwfc	ldra_sprintf@format+1,f
  2638                           
  2639                           ;C:\LDRA_Toolsuite\Compiler_spec\Microchip\xc8\ldra_port_common.c: 71:         if ((*for
      +                          mat >= '1') && (*format <= '9')) {
  2640  068D  0823               	movf	ldra_sprintf@format,w
  2641  068E  0084               	movwf	4
  2642  068F  0824               	movf	ldra_sprintf@format+1,w
  2643  0690  0085               	movwf	5
  2644  0691  0800               	movf	0,w	;code access
  2645  0692  00AF               	movwf	??_ldra_sprintf
  2646  0693  3031               	movlw	49
  2647  0694  022F               	subwf	??_ldra_sprintf,w
  2648  0695  1C03               	skipc
  2649  0696  2EE8               	goto	l1303
  2650  0697  0823               	movf	ldra_sprintf@format,w
  2651  0698  0084               	movwf	4
  2652  0699  0824               	movf	ldra_sprintf@format+1,w
  2653  069A  0085               	movwf	5
  2654  069B  0800               	movf	0,w	;code access
  2655  069C  00AF               	movwf	??_ldra_sprintf
  2656  069D  303A               	movlw	58
  2657  069E  022F               	subwf	??_ldra_sprintf,w
  2658  069F  1803               	skipnc
  2659  06A0  2EE8               	goto	l1303
  2660                           
  2661                           ;C:\LDRA_Toolsuite\Compiler_spec\Microchip\xc8\ldra_port_common.c: 72:           width =
      +                           *format - '0';
  2662  06A1  0823               	movf	ldra_sprintf@format,w
  2663  06A2  0084               	movwf	4
  2664  06A3  0824               	movf	ldra_sprintf@format+1,w
  2665  06A4  0085               	movwf	5
  2666  06A5  0800               	movf	0,w	;code access
  2667  06A6  3ED0               	addlw	208
  2668  06A7  00BD               	movwf	ldra_sprintf@width
  2669  06A8  30FF               	movlw	255
  2670  06A9  1803               	skipnc
  2671  06AA  3000               	movlw	0
  2672  06AB  00BE               	movwf	ldra_sprintf@width+1
  2673                           
  2674                           ;C:\LDRA_Toolsuite\Compiler_spec\Microchip\xc8\ldra_port_common.c: 73:           ++forma
      +                          t;
  2675  06AC  3001               	movlw	1
  2676  06AD  07A3               	addwf	ldra_sprintf@format,f
  2677  06AE  3000               	movlw	0
  2678  06AF  3DA4               	addwfc	ldra_sprintf@format+1,f
  2679                           
  2680                           ;C:\LDRA_Toolsuite\Compiler_spec\Microchip\xc8\ldra_port_common.c: 75:           if ((*f
      +                          ormat >= '0') && (*format <= '9')) {
  2681  06B0  0823               	movf	ldra_sprintf@format,w
  2682  06B1  0084               	movwf	4
  2683  06B2  0824               	movf	ldra_sprintf@format+1,w
  2684  06B3  0085               	movwf	5
  2685  06B4  0800               	movf	0,w	;code access
  2686  06B5  00AF               	movwf	??_ldra_sprintf
  2687  06B6  3030               	movlw	48
  2688  06B7  022F               	subwf	??_ldra_sprintf,w
  2689  06B8  1C03               	skipc
  2690  06B9  2F49               	goto	l1323
  2691  06BA  0823               	movf	ldra_sprintf@format,w
  2692  06BB  0084               	movwf	4
  2693  06BC  0824               	movf	ldra_sprintf@format+1,w
  2694  06BD  0085               	movwf	5
  2695  06BE  0800               	movf	0,w	;code access
  2696  06BF  00AF               	movwf	??_ldra_sprintf
  2697  06C0  303A               	movlw	58
  2698  06C1  022F               	subwf	??_ldra_sprintf,w
  2699  06C2  1803               	skipnc
  2700  06C3  2F49               	goto	l1323
  2701                           
  2702                           ;C:\LDRA_Toolsuite\Compiler_spec\Microchip\xc8\ldra_port_common.c: 76:             width
      +                           *= 10;
  2703  06C4  300A               	movlw	10
  2704  06C5  00F0               	movwf	___wmul@multiplier
  2705  06C6  3000               	movlw	0
  2706  06C7  00F1               	movwf	___wmul@multiplier+1
  2707  06C8  083E               	movf	ldra_sprintf@width+1,w
  2708  06C9  00F3               	movwf	___wmul@multiplicand+1
  2709  06CA  083D               	movf	ldra_sprintf@width,w
  2710  06CB  00F2               	movwf	___wmul@multiplicand
  2711  06CC  3183  237B  3186   	fcall	___wmul
  2712  06CF  0871               	movf	?___wmul+1,w
  2713  06D0  0020               	movlb	0	; select bank0
  2714  06D1  00BE               	movwf	ldra_sprintf@width+1
  2715  06D2  0870               	movf	?___wmul,w
  2716  06D3  00BD               	movwf	ldra_sprintf@width
  2717                           
  2718                           ;C:\LDRA_Toolsuite\Compiler_spec\Microchip\xc8\ldra_port_common.c: 77:             width
      +                           += *format - '0';
  2719  06D4  0823               	movf	ldra_sprintf@format,w
  2720  06D5  0084               	movwf	4
  2721  06D6  0824               	movf	ldra_sprintf@format+1,w
  2722  06D7  0085               	movwf	5
  2723  06D8  0800               	movf	0,w	;code access
  2724  06D9  3ED0               	addlw	208
  2725  06DA  00AF               	movwf	??_ldra_sprintf
  2726  06DB  30FF               	movlw	255
  2727  06DC  1803               	skipnc
  2728  06DD  3000               	movlw	0
  2729  06DE  00B0               	movwf	??_ldra_sprintf+1
  2730  06DF  082F               	movf	??_ldra_sprintf,w
  2731  06E0  07BD               	addwf	ldra_sprintf@width,f
  2732  06E1  0830               	movf	??_ldra_sprintf+1,w
  2733  06E2  3DBE               	addwfc	ldra_sprintf@width+1,f
  2734                           
  2735                           ;C:\LDRA_Toolsuite\Compiler_spec\Microchip\xc8\ldra_port_common.c: 78:             ++for
      +                          mat;
  2736  06E3  3001               	movlw	1
  2737  06E4  07A3               	addwf	ldra_sprintf@format,f
  2738  06E5  3000               	movlw	0
  2739  06E6  3DA4               	addwfc	ldra_sprintf@format+1,f
  2740  06E7  2F49               	goto	l1323
  2741  06E8                     l1303:	
  2742                           
  2743                           ;C:\LDRA_Toolsuite\Compiler_spec\Microchip\xc8\ldra_port_common.c: 81:           width =
      +                           1;
  2744  06E8  3001               	movlw	1
  2745  06E9  00BD               	movwf	ldra_sprintf@width
  2746  06EA  3000               	movlw	0
  2747  06EB  00BE               	movwf	ldra_sprintf@width+1
  2748                           
  2749                           ;C:\LDRA_Toolsuite\Compiler_spec\Microchip\xc8\ldra_port_common.c: 82:           digits 
      +                          = d[max-cnt];
  2750  06EC  083B               	movf	ldra_sprintf@max,w
  2751  06ED  00AF               	movwf	??_ldra_sprintf
  2752  06EE  3001               	movlw	1
  2753  06EF                     u925:	
  2754  06EF  35AF               	lslf	??_ldra_sprintf,f
  2755  06F0  0B89               	decfsz	9,f
  2756  06F1  2EEF               	goto	u925
  2757  06F2  3033               	movlw	(low (ldra_sprintf@d| 0))& (0+255)
  2758  06F3  072F               	addwf	??_ldra_sprintf,w
  2759  06F4  00B0               	movwf	??_ldra_sprintf+1
  2760  06F5  30FE               	movlw	254
  2761  06F6  00B1               	movwf	??_ldra_sprintf+2
  2762  06F7  0831               	movf	??_ldra_sprintf+2,w
  2763  06F8  00F0               	movwf	___bmul@multiplicand
  2764  06F9  0825               	movf	ldra_sprintf@cnt,w
  2765  06FA  3183  2351  3186   	fcall	___bmul
  2766  06FD  0020               	movlb	0	; select bank0
  2767  06FE  0730               	addwf	??_ldra_sprintf+1,w
  2768  06FF  00B2               	movwf	??_ldra_sprintf+3
  2769  0700  0832               	movf	??_ldra_sprintf+3,w
  2770  0701  0086               	movwf	6
  2771  0702  0187               	clrf	7
  2772  0703  3F40               	moviw [0]fsr1
  2773  0704  00BF               	movwf	ldra_sprintf@digits
  2774  0705  3F41               	moviw [1]fsr1
  2775  0706  00C0               	movwf	ldra_sprintf@digits+1
  2776                           
  2777                           ;C:\LDRA_Toolsuite\Compiler_spec\Microchip\xc8\ldra_port_common.c: 86:           if (dig
      +                          its < -9) {
  2778  0707  0840               	movf	ldra_sprintf@digits+1,w
  2779  0708  3A80               	xorlw	128
  2780  0709  00AF               	movwf	??_ldra_sprintf
  2781  070A  307F               	movlw	127
  2782  070B  022F               	subwf	??_ldra_sprintf,w
  2783  070C  1D03               	skipz
  2784  070D  2F10               	goto	u935
  2785  070E  30F7               	movlw	247
  2786  070F  023F               	subwf	ldra_sprintf@digits,w
  2787  0710                     u935:	
  2788  0710  1803               	skipnc
  2789  0711  2F18               	goto	l1315
  2790                           
  2791                           ;C:\LDRA_Toolsuite\Compiler_spec\Microchip\xc8\ldra_port_common.c: 87:             digit
      +                          s = -digits;
  2792  0712  0020               	movlb	0	; select bank0
  2793  0713  09BF               	comf	ldra_sprintf@digits,f
  2794  0714  09C0               	comf	ldra_sprintf@digits+1,f
  2795  0715  0ABF               	incf	ldra_sprintf@digits,f
  2796  0716  1903               	skipnz
  2797  0717  0AC0               	incf	ldra_sprintf@digits+1,f
  2798  0718                     l1315:	
  2799                           
  2800                           ;C:\LDRA_Toolsuite\Compiler_spec\Microchip\xc8\ldra_port_common.c: 90:           while (
      +                          digits > 9) {
  2801  0718  0020               	movlb	0	; select bank0
  2802  0719  0840               	movf	ldra_sprintf@digits+1,w
  2803  071A  3A80               	xorlw	128
  2804  071B  00AF               	movwf	??_ldra_sprintf
  2805  071C  3080               	movlw	128
  2806  071D  022F               	subwf	??_ldra_sprintf,w
  2807  071E  1D03               	skipz
  2808  071F  2F22               	goto	u945
  2809  0720  300A               	movlw	10
  2810  0721  023F               	subwf	ldra_sprintf@digits,w
  2811  0722                     u945:	
  2812  0722  1C03               	btfss	3,0
  2813  0723  2F49               	goto	l1323
  2814                           
  2815                           ;C:\LDRA_Toolsuite\Compiler_spec\Microchip\xc8\ldra_port_common.c: 91:             digit
      +                          s /= 10;
  2816  0724  300A               	movlw	10
  2817  0725  00F0               	movwf	___awdiv@divisor
  2818  0726  3000               	movlw	0
  2819  0727  00F1               	movwf	___awdiv@divisor+1
  2820  0728  0020               	movlb	0	; select bank0
  2821  0729  0840               	movf	ldra_sprintf@digits+1,w
  2822  072A  00F3               	movwf	___awdiv@dividend+1
  2823  072B  083F               	movf	ldra_sprintf@digits,w
  2824  072C  00F2               	movwf	___awdiv@dividend
  2825  072D  3184  24D6  3186   	fcall	___awdiv
  2826  0730  0871               	movf	?___awdiv+1,w
  2827  0731  0020               	movlb	0	; select bank0
  2828  0732  00C0               	movwf	ldra_sprintf@digits+1
  2829  0733  0870               	movf	?___awdiv,w
  2830  0734  00BF               	movwf	ldra_sprintf@digits
  2831                           
  2832                           ;C:\LDRA_Toolsuite\Compiler_spec\Microchip\xc8\ldra_port_common.c: 92:             width
      +                          ++;
  2833  0735  3001               	movlw	1
  2834  0736  07BD               	addwf	ldra_sprintf@width,f
  2835  0737  3000               	movlw	0
  2836  0738  3DBE               	addwfc	ldra_sprintf@width+1,f
  2837  0739  2F18               	goto	l1315
  2838  073A                     l1317:	
  2839                           
  2840                           ;C:\LDRA_Toolsuite\Compiler_spec\Microchip\xc8\ldra_port_common.c: 97:           *str++ 
      +                          = ' ';
  2841  073A  3020               	movlw	32
  2842  073B  00AF               	movwf	??_ldra_sprintf
  2843  073C  0841               	movf	ldra_sprintf@str,w
  2844  073D  0086               	movwf	6
  2845  073E  0187               	clrf	7
  2846  073F  082F               	movf	??_ldra_sprintf,w
  2847  0740  0081               	movwf	1
  2848  0741  3001               	movlw	1
  2849  0742  00AF               	movwf	??_ldra_sprintf
  2850  0743  082F               	movf	??_ldra_sprintf,w
  2851  0744  07C1               	addwf	ldra_sprintf@str,f
  2852                           
  2853                           ;C:\LDRA_Toolsuite\Compiler_spec\Microchip\xc8\ldra_port_common.c: 98:           --width
      +                          ;
  2854  0745  30FF               	movlw	255
  2855  0746  07BD               	addwf	ldra_sprintf@width,f
  2856  0747  30FF               	movlw	255
  2857  0748  3DBE               	addwfc	ldra_sprintf@width+1,f
  2858  0749                     l1323:	
  2859                           
  2860                           ;C:\LDRA_Toolsuite\Compiler_spec\Microchip\xc8\ldra_port_common.c: 96:         while (wi
      +                          dth!=0) {
  2861  0749  0020               	movlb	0	; select bank0
  2862  074A  083D               	movf	ldra_sprintf@width,w
  2863  074B  043E               	iorwf	ldra_sprintf@width+1,w
  2864  074C  1D03               	btfss	3,2
  2865  074D  2F3A               	goto	l1317
  2866                           
  2867                           ;C:\LDRA_Toolsuite\Compiler_spec\Microchip\xc8\ldra_port_common.c: 101:         if (*for
      +                          mat == 'd') {
  2868  074E  0823               	movf	ldra_sprintf@format,w
  2869  074F  0084               	movwf	4
  2870  0750  0824               	movf	ldra_sprintf@format+1,w
  2871  0751  0085               	movwf	5
  2872  0752  0012               	moviw fsr0++
  2873  0753  3A64               	xorlw	100
  2874  0754  1D03               	btfss	3,2
  2875  0755  2F7F               	goto	l1333
  2876                           
  2877                           ;C:\LDRA_Toolsuite\Compiler_spec\Microchip\xc8\ldra_port_common.c: 102:           ++form
      +                          at;
  2878  0756  3001               	movlw	1
  2879  0757  07A3               	addwf	ldra_sprintf@format,f
  2880  0758  3000               	movlw	0
  2881  0759  3DA4               	addwfc	ldra_sprintf@format+1,f
  2882                           
  2883                           ;C:\LDRA_Toolsuite\Compiler_spec\Microchip\xc8\ldra_port_common.c: 104:           ldra_i
      +                          nt_to_dec(str, d[max-cnt]);
  2884  075A  083B               	movf	ldra_sprintf@max,w
  2885  075B  00AF               	movwf	??_ldra_sprintf
  2886  075C  3001               	movlw	1
  2887  075D                     u975:	
  2888  075D  35AF               	lslf	??_ldra_sprintf,f
  2889  075E  0B89               	decfsz	9,f
  2890  075F  2F5D               	goto	u975
  2891  0760  3033               	movlw	(low (ldra_sprintf@d| 0))& (0+255)
  2892  0761  072F               	addwf	??_ldra_sprintf,w
  2893  0762  00B0               	movwf	??_ldra_sprintf+1
  2894  0763  30FE               	movlw	254
  2895  0764  00B1               	movwf	??_ldra_sprintf+2
  2896  0765  0831               	movf	??_ldra_sprintf+2,w
  2897  0766  00F0               	movwf	___bmul@multiplicand
  2898  0767  0825               	movf	ldra_sprintf@cnt,w
  2899  0768  3183  2351  3186   	fcall	___bmul
  2900  076B  0020               	movlb	0	; select bank0
  2901  076C  0730               	addwf	??_ldra_sprintf+1,w
  2902  076D  00B2               	movwf	??_ldra_sprintf+3
  2903  076E  0832               	movf	??_ldra_sprintf+3,w
  2904  076F  0086               	movwf	6
  2905  0770  0187               	clrf	7
  2906  0771  3F40               	moviw [0]fsr1
  2907  0772  00F9               	movwf	ldra_int_to_dec@val
  2908  0773  3F41               	moviw [1]fsr1
  2909  0774  00FA               	movwf	ldra_int_to_dec@val+1
  2910  0775  0841               	movf	ldra_sprintf@str,w
  2911  0776  3184  2488  3186   	fcall	_ldra_int_to_dec
  2912                           
  2913                           ;C:\LDRA_Toolsuite\Compiler_spec\Microchip\xc8\ldra_port_common.c: 105:           --cnt;
  2914  0779  30FF               	movlw	255
  2915  077A  0020               	movlb	0	; select bank0
  2916  077B  07A5               	addwf	ldra_sprintf@cnt,f
  2917  077C  30FF               	movlw	255
  2918  077D  3DA6               	addwfc	ldra_sprintf@cnt+1,f
  2919                           
  2920                           ;C:\LDRA_Toolsuite\Compiler_spec\Microchip\xc8\ldra_port_common.c: 106:         } else {
  2921  077E  2FD5               	goto	l1357
  2922  077F                     l1333:	
  2923                           
  2924                           ;C:\LDRA_Toolsuite\Compiler_spec\Microchip\xc8\ldra_port_common.c: 108:           *str++
      +                           = ' ';
  2925  077F  3020               	movlw	32
  2926  0780  00AF               	movwf	??_ldra_sprintf
  2927  0781  0841               	movf	ldra_sprintf@str,w
  2928  0782  0086               	movwf	6
  2929  0783  0187               	clrf	7
  2930  0784  082F               	movf	??_ldra_sprintf,w
  2931  0785  0081               	movwf	1
  2932  0786  3001               	movlw	1
  2933  0787  00AF               	movwf	??_ldra_sprintf
  2934  0788  082F               	movf	??_ldra_sprintf,w
  2935  0789  07C1               	addwf	ldra_sprintf@str,f
  2936                           
  2937                           ;C:\LDRA_Toolsuite\Compiler_spec\Microchip\xc8\ldra_port_common.c: 109:           *str++
      +                           = 'E';
  2938  078A  3045               	movlw	69
  2939  078B  00AF               	movwf	??_ldra_sprintf
  2940  078C  0841               	movf	ldra_sprintf@str,w
  2941  078D  0086               	movwf	6
  2942  078E  0187               	clrf	7
  2943  078F  082F               	movf	??_ldra_sprintf,w
  2944  0790  0081               	movwf	1
  2945  0791  3001               	movlw	1
  2946  0792  00AF               	movwf	??_ldra_sprintf
  2947  0793  082F               	movf	??_ldra_sprintf,w
  2948  0794  07C1               	addwf	ldra_sprintf@str,f
  2949                           
  2950                           ;C:\LDRA_Toolsuite\Compiler_spec\Microchip\xc8\ldra_port_common.c: 110:           *str++
      +                           = 'r';
  2951  0795  3072               	movlw	114
  2952  0796  00AF               	movwf	??_ldra_sprintf
  2953  0797  0841               	movf	ldra_sprintf@str,w
  2954  0798  0086               	movwf	6
  2955  0799  0187               	clrf	7
  2956  079A  082F               	movf	??_ldra_sprintf,w
  2957  079B  0081               	movwf	1
  2958  079C  3001               	movlw	1
  2959  079D  00AF               	movwf	??_ldra_sprintf
  2960  079E  082F               	movf	??_ldra_sprintf,w
  2961  079F  07C1               	addwf	ldra_sprintf@str,f
  2962                           
  2963                           ;C:\LDRA_Toolsuite\Compiler_spec\Microchip\xc8\ldra_port_common.c: 111:           *str++
      +                           = 'r';
  2964  07A0  3072               	movlw	114
  2965  07A1  00AF               	movwf	??_ldra_sprintf
  2966  07A2  0841               	movf	ldra_sprintf@str,w
  2967  07A3  0086               	movwf	6
  2968  07A4  0187               	clrf	7
  2969  07A5  082F               	movf	??_ldra_sprintf,w
  2970  07A6  0081               	movwf	1
  2971  07A7  3001               	movlw	1
  2972  07A8  00AF               	movwf	??_ldra_sprintf
  2973  07A9  082F               	movf	??_ldra_sprintf,w
  2974  07AA  07C1               	addwf	ldra_sprintf@str,f
  2975                           
  2976                           ;C:\LDRA_Toolsuite\Compiler_spec\Microchip\xc8\ldra_port_common.c: 112:           *str++
      +                           = 'o';
  2977  07AB  306F               	movlw	111
  2978  07AC  00AF               	movwf	??_ldra_sprintf
  2979  07AD  0841               	movf	ldra_sprintf@str,w
  2980  07AE  0086               	movwf	6
  2981  07AF  0187               	clrf	7
  2982  07B0  082F               	movf	??_ldra_sprintf,w
  2983  07B1  0081               	movwf	1
  2984  07B2  3001               	movlw	1
  2985  07B3  00AF               	movwf	??_ldra_sprintf
  2986  07B4  082F               	movf	??_ldra_sprintf,w
  2987  07B5  07C1               	addwf	ldra_sprintf@str,f
  2988                           
  2989                           ;C:\LDRA_Toolsuite\Compiler_spec\Microchip\xc8\ldra_port_common.c: 113:           *str++
      +                           = 'r';
  2990  07B6  3072               	movlw	114
  2991  07B7  00AF               	movwf	??_ldra_sprintf
  2992  07B8  0841               	movf	ldra_sprintf@str,w
  2993  07B9  0086               	movwf	6
  2994  07BA  0187               	clrf	7
  2995  07BB  082F               	movf	??_ldra_sprintf,w
  2996  07BC  0081               	movwf	1
  2997  07BD  3001               	movlw	1
  2998  07BE  00AF               	movwf	??_ldra_sprintf
  2999  07BF  082F               	movf	??_ldra_sprintf,w
  3000  07C0  07C1               	addwf	ldra_sprintf@str,f
  3001  07C1  2FD5               	goto	l1357
  3002  07C2                     l1351:	
  3003                           
  3004                           ;C:\LDRA_Toolsuite\Compiler_spec\Microchip\xc8\ldra_port_common.c: 118:         *str = *
      +                          format;
  3005  07C2  0823               	movf	ldra_sprintf@format,w
  3006  07C3  0084               	movwf	4
  3007  07C4  0824               	movf	ldra_sprintf@format+1,w
  3008  07C5  0085               	movwf	5
  3009  07C6  0800               	movf	0,w	;code access
  3010  07C7  00AF               	movwf	??_ldra_sprintf
  3011  07C8  0841               	movf	ldra_sprintf@str,w
  3012  07C9  0086               	movwf	6
  3013  07CA  0187               	clrf	7
  3014  07CB  082F               	movf	??_ldra_sprintf,w
  3015  07CC  0081               	movwf	1
  3016                           
  3017                           ;C:\LDRA_Toolsuite\Compiler_spec\Microchip\xc8\ldra_port_common.c: 119:         ++str;
  3018  07CD  3001               	movlw	1
  3019  07CE  00AF               	movwf	??_ldra_sprintf
  3020  07CF  082F               	movf	??_ldra_sprintf,w
  3021  07D0  07C1               	addwf	ldra_sprintf@str,f
  3022                           
  3023                           ;C:\LDRA_Toolsuite\Compiler_spec\Microchip\xc8\ldra_port_common.c: 120:         ++format
      +                          ;
  3024  07D1  3001               	movlw	1
  3025  07D2  07A3               	addwf	ldra_sprintf@format,f
  3026  07D3  3000               	movlw	0
  3027  07D4  3DA4               	addwfc	ldra_sprintf@format+1,f
  3028  07D5                     l1357:	
  3029                           
  3030                           ;C:\LDRA_Toolsuite\Compiler_spec\Microchip\xc8\ldra_port_common.c: 122:     } while ((*f
      +                          ormat != '\0'));
  3031  07D5  0823               	movf	ldra_sprintf@format,w
  3032  07D6  0084               	movwf	4
  3033  07D7  0824               	movf	ldra_sprintf@format+1,w
  3034  07D8  0085               	movwf	5
  3035  07D9  0012               	moviw fsr0++
  3036  07DA  1D03               	btfss	3,2
  3037  07DB  2E7D               	goto	l1279
  3038  07DC                     l1359:	
  3039                           
  3040                           ;C:\LDRA_Toolsuite\Compiler_spec\Microchip\xc8\ldra_port_common.c: 124:   *str = '\0';
  3041  07DC  0841               	movf	ldra_sprintf@str,w
  3042  07DD  0086               	movwf	6
  3043  07DE  0187               	clrf	7
  3044  07DF  0181               	clrf	1
  3045  07E0  0008               	return
  3046  07E1                     __end_of_ldra_sprintf:	
  3047                           
  3048                           	psect	text3
  3049  0488                     __ptext3:	
  3050 ;; *************** function _ldra_int_to_dec *****************
  3051 ;; Defined at:
  3052 ;;		line 32 in file "C:\LDRA_Toolsuite\Compiler_spec\Microchip\xc8\ldra_port_common.c"
  3053 ;; Parameters:    Size  Location     Type
  3054 ;;  str             1    wreg     PTR unsigned char 
  3055 ;;		 -> main@msg(64), 
  3056 ;;  val             2    9[COMMON] int 
  3057 ;; Auto vars:     Size  Location     Type
  3058 ;;  str             1    2[BANK0 ] PTR unsigned char 
  3059 ;;		 -> main@msg(64), 
  3060 ;;  neg             2    0[BANK0 ] int 
  3061 ;; Return value:  Size  Location     Type
  3062 ;;                  1    wreg      void 
  3063 ;; Registers used:
  3064 ;;		wreg, fsr1l, fsr1h, status,2, status,0, pclath, cstack
  3065 ;; Tracked objects:
  3066 ;;		On entry : 0/0
  3067 ;;		On exit  : 0/0
  3068 ;;		Unchanged: 0/0
  3069 ;; Data sizes:     COMMON   BANK0   BANK1   BANK2   BANK3   BANK4   BANK5   BANK6   BANK7   BANK8   BANK9  BANK10  BANK1
      +1  BANK12  BANK13  BANK14  BANK15  BANK16  BANK17  BANK18  BANK19  BANK20  BANK21  BANK22  BANK23  BANK24  BANK25
  3070 ;;      Params:         2       0       0       0       0       0       0       0       0       0       0       0       
      +0       0       0       0       0       0       0       0       0       0       0       0       0       0       0
  3071 ;;      Locals:         0       3       0       0       0       0       0       0       0       0       0       0       
      +0       0       0       0       0       0       0       0       0       0       0       0       0       0       0
  3072 ;;      Temps:          2       0       0       0       0       0       0       0       0       0       0       0       
      +0       0       0       0       0       0       0       0       0       0       0       0       0       0       0
  3073 ;;      Totals:         4       3       0       0       0       0       0       0       0       0       0       0       
      +0       0       0       0       0       0       0       0       0       0       0       0       0       0       0
  3074 ;;Total ram usage:        7 bytes
  3075 ;; Hardware stack levels used:    1
  3076 ;; Hardware stack levels required when called:    1
  3077 ;; This function calls:
  3078 ;;		___awdiv
  3079 ;;		___awmod
  3080 ;; This function is called by:
  3081 ;;		_ldra_sprintf
  3082 ;; This function uses a non-reentrant model
  3083 ;;
  3084                           
  3085                           
  3086                           ;psect for function _ldra_int_to_dec
  3087  0488                     _ldra_int_to_dec:	
  3088                           
  3089                           ;incstack = 0
  3090                           ; Regs used in _ldra_int_to_dec: [wreg+fsr1l+fsr1h+status,2+status,0+pclath+cstack]
  3091                           ;ldra_int_to_dec@str stored from wreg
  3092  0488  0020               	movlb	0	; select bank0
  3093  0489  00A2               	movwf	ldra_int_to_dec@str
  3094                           
  3095                           ;C:\LDRA_Toolsuite\Compiler_spec\Microchip\xc8\ldra_port_common.c: 34:   int neg = (val 
      +                          < 0);
  3096  048A  1FFA               	btfss	ldra_int_to_dec@val+1,7
  3097  048B  2C8E               	goto	u730
  3098  048C  3001               	movlw	1
  3099  048D  2C8F               	goto	u740
  3100  048E                     u730:	
  3101  048E  3000               	movlw	0
  3102  048F                     u740:	
  3103  048F  00FB               	movwf	??_ldra_int_to_dec
  3104  0490  01FC               	clrf	??_ldra_int_to_dec+1
  3105  0491  087B               	movf	??_ldra_int_to_dec,w
  3106  0492  00A0               	movwf	ldra_int_to_dec@neg
  3107  0493  087C               	movf	??_ldra_int_to_dec+1,w
  3108  0494  00A1               	movwf	ldra_int_to_dec@neg+1
  3109                           
  3110                           ;C:\LDRA_Toolsuite\Compiler_spec\Microchip\xc8\ldra_port_common.c: 35:   if (neg) {
  3111  0495  0820               	movf	ldra_int_to_dec@neg,w
  3112  0496  0421               	iorwf	ldra_int_to_dec@neg+1,w
  3113  0497  1903               	btfsc	3,2
  3114  0498  2C9E               	goto	l1213
  3115                           
  3116                           ;C:\LDRA_Toolsuite\Compiler_spec\Microchip\xc8\ldra_port_common.c: 36:     val = -val;
  3117  0499  09F9               	comf	ldra_int_to_dec@val,f
  3118  049A  09FA               	comf	ldra_int_to_dec@val+1,f
  3119  049B  0AF9               	incf	ldra_int_to_dec@val,f
  3120  049C  1903               	skipnz
  3121  049D  0AFA               	incf	ldra_int_to_dec@val+1,f
  3122  049E                     l1213:	
  3123                           
  3124                           ;C:\LDRA_Toolsuite\Compiler_spec\Microchip\xc8\ldra_port_common.c: 41:     *(--str) = (c
      +                          har)(val % 10) + '0';
  3125  049E  300A               	movlw	10
  3126  049F  00F0               	movwf	___awmod@divisor
  3127  04A0  3000               	movlw	0
  3128  04A1  00F1               	movwf	___awmod@divisor+1
  3129  04A2  087A               	movf	ldra_int_to_dec@val+1,w
  3130  04A3  00F3               	movwf	___awmod@dividend+1
  3131  04A4  0879               	movf	ldra_int_to_dec@val,w
  3132  04A5  00F2               	movwf	___awmod@dividend
  3133  04A6  3183  23FD  3184   	fcall	___awmod
  3134  04A9  0870               	movf	?___awmod,w
  3135  04AA  3E30               	addlw	48
  3136  04AB  00FB               	movwf	??_ldra_int_to_dec
  3137  04AC  3001               	movlw	1
  3138  04AD  0020               	movlb	0	; select bank0
  3139  04AE  02A2               	subwf	ldra_int_to_dec@str,f
  3140  04AF  0822               	movf	ldra_int_to_dec@str,w
  3141  04B0  0086               	movwf	6
  3142  04B1  0187               	clrf	7
  3143  04B2  087B               	movf	??_ldra_int_to_dec,w
  3144  04B3  0081               	movwf	1
  3145                           
  3146                           ;C:\LDRA_Toolsuite\Compiler_spec\Microchip\xc8\ldra_port_common.c: 42:     val /= 10;
  3147  04B4  300A               	movlw	10
  3148  04B5  00F0               	movwf	___awdiv@divisor
  3149  04B6  3000               	movlw	0
  3150  04B7  00F1               	movwf	___awdiv@divisor+1
  3151  04B8  087A               	movf	ldra_int_to_dec@val+1,w
  3152  04B9  00F3               	movwf	___awdiv@dividend+1
  3153  04BA  0879               	movf	ldra_int_to_dec@val,w
  3154  04BB  00F2               	movwf	___awdiv@dividend
  3155  04BC  3184  24D6  3184   	fcall	___awdiv
  3156  04BF  0871               	movf	?___awdiv+1,w
  3157  04C0  00FA               	movwf	ldra_int_to_dec@val+1
  3158  04C1  0870               	movf	?___awdiv,w
  3159  04C2  00F9               	movwf	ldra_int_to_dec@val
  3160                           
  3161                           ;C:\LDRA_Toolsuite\Compiler_spec\Microchip\xc8\ldra_port_common.c: 43:   } while (val);
  3162  04C3  0879               	movf	ldra_int_to_dec@val,w
  3163  04C4  047A               	iorwf	ldra_int_to_dec@val+1,w
  3164  04C5  1D03               	btfss	3,2
  3165  04C6  2C9E               	goto	l1213
  3166                           
  3167                           ;C:\LDRA_Toolsuite\Compiler_spec\Microchip\xc8\ldra_port_common.c: 45:   if (neg) {
  3168  04C7  0020               	movlb	0	; select bank0
  3169  04C8  0820               	movf	ldra_int_to_dec@neg,w
  3170  04C9  0421               	iorwf	ldra_int_to_dec@neg+1,w
  3171  04CA  1903               	btfsc	3,2
  3172  04CB  0008               	return
  3173                           
  3174                           ;C:\LDRA_Toolsuite\Compiler_spec\Microchip\xc8\ldra_port_common.c: 46:     *(--str) = '-
      +                          ';
  3175  04CC  302D               	movlw	45
  3176  04CD  00FB               	movwf	??_ldra_int_to_dec
  3177  04CE  3001               	movlw	1
  3178  04CF  02A2               	subwf	ldra_int_to_dec@str,f
  3179  04D0  0822               	movf	ldra_int_to_dec@str,w
  3180  04D1  0086               	movwf	6
  3181  04D2  0187               	clrf	7
  3182  04D3  087B               	movf	??_ldra_int_to_dec,w
  3183  04D4  0081               	movwf	1
  3184  04D5  0008               	return
  3185  04D6                     __end_of_ldra_int_to_dec:	
  3186                           
  3187                           	psect	text4
  3188  03FD                     __ptext4:	
  3189 ;; *************** function ___awmod *****************
  3190 ;; Defined at:
  3191 ;;		line 5 in file "C:\Program Files (x86)\Microchip\xc8\v2.05\pic\sources\c99\common\awmod.c"
  3192 ;; Parameters:    Size  Location     Type
  3193 ;;  divisor         2    0[COMMON] int 
  3194 ;;  dividend        2    2[COMMON] int 
  3195 ;; Auto vars:     Size  Location     Type
  3196 ;;  sign            1    6[COMMON] unsigned char 
  3197 ;;  counter         1    5[COMMON] unsigned char 
  3198 ;; Return value:  Size  Location     Type
  3199 ;;                  2    0[COMMON] int 
  3200 ;; Registers used:
  3201 ;;		wreg, status,2, status,0
  3202 ;; Tracked objects:
  3203 ;;		On entry : 0/0
  3204 ;;		On exit  : 0/0
  3205 ;;		Unchanged: 0/0
  3206 ;; Data sizes:     COMMON   BANK0   BANK1   BANK2   BANK3   BANK4   BANK5   BANK6   BANK7   BANK8   BANK9  BANK10  BANK1
      +1  BANK12  BANK13  BANK14  BANK15  BANK16  BANK17  BANK18  BANK19  BANK20  BANK21  BANK22  BANK23  BANK24  BANK25
  3207 ;;      Params:         4       0       0       0       0       0       0       0       0       0       0       0       
      +0       0       0       0       0       0       0       0       0       0       0       0       0       0       0
  3208 ;;      Locals:         2       0       0       0       0       0       0       0       0       0       0       0       
      +0       0       0       0       0       0       0       0       0       0       0       0       0       0       0
  3209 ;;      Temps:          1       0       0       0       0       0       0       0       0       0       0       0       
      +0       0       0       0       0       0       0       0       0       0       0       0       0       0       0
  3210 ;;      Totals:         7       0       0       0       0       0       0       0       0       0       0       0       
      +0       0       0       0       0       0       0       0       0       0       0       0       0       0       0
  3211 ;;Total ram usage:        7 bytes
  3212 ;; Hardware stack levels used:    1
  3213 ;; This function calls:
  3214 ;;		Nothing
  3215 ;; This function is called by:
  3216 ;;		_ldra_int_to_dec
  3217 ;; This function uses a non-reentrant model
  3218 ;;
  3219                           
  3220                           
  3221                           ;psect for function ___awmod
  3222  03FD                     ___awmod:	
  3223                           
  3224                           ;incstack = 0
  3225                           ; Regs used in ___awmod: [wreg+status,2+status,0]
  3226  03FD  01F6               	clrf	___awmod@sign
  3227  03FE  1FF3               	btfss	___awmod@dividend+1,7
  3228  03FF  2C07               	goto	l1157
  3229  0400  09F2               	comf	___awmod@dividend,f
  3230  0401  09F3               	comf	___awmod@dividend+1,f
  3231  0402  0AF2               	incf	___awmod@dividend,f
  3232  0403  1903               	skipnz
  3233  0404  0AF3               	incf	___awmod@dividend+1,f
  3234  0405  01F6               	clrf	___awmod@sign
  3235  0406  0AF6               	incf	___awmod@sign,f
  3236  0407                     l1157:	
  3237  0407  1FF1               	btfss	___awmod@divisor+1,7
  3238  0408  2C0E               	goto	l1161
  3239  0409  09F0               	comf	___awmod@divisor,f
  3240  040A  09F1               	comf	___awmod@divisor+1,f
  3241  040B  0AF0               	incf	___awmod@divisor,f
  3242  040C  1903               	skipnz
  3243  040D  0AF1               	incf	___awmod@divisor+1,f
  3244  040E                     l1161:	
  3245  040E  0870               	movf	___awmod@divisor,w
  3246  040F  0471               	iorwf	___awmod@divisor+1,w
  3247  0410  1903               	btfsc	3,2
  3248  0411  2C35               	goto	l1179
  3249  0412  01F5               	clrf	___awmod@counter
  3250  0413  0AF5               	incf	___awmod@counter,f
  3251  0414                     l1169:	
  3252  0414  1BF1               	btfsc	___awmod@divisor+1,7
  3253  0415  2C20               	goto	l1171
  3254  0416  3001               	movlw	1
  3255  0417                     u665:	
  3256  0417  35F0               	lslf	___awmod@divisor,f
  3257  0418  0DF1               	rlf	___awmod@divisor+1,f
  3258  0419  0B89               	decfsz	9,f
  3259  041A  2C17               	goto	u665
  3260  041B  3001               	movlw	1
  3261  041C  00F4               	movwf	??___awmod
  3262  041D  0874               	movf	??___awmod,w
  3263  041E  07F5               	addwf	___awmod@counter,f
  3264  041F  2C14               	goto	l1169
  3265  0420                     l1171:	
  3266  0420  0871               	movf	___awmod@divisor+1,w
  3267  0421  0273               	subwf	___awmod@dividend+1,w
  3268  0422  1D03               	skipz
  3269  0423  2C26               	goto	u685
  3270  0424  0870               	movf	___awmod@divisor,w
  3271  0425  0272               	subwf	___awmod@dividend,w
  3272  0426                     u685:	
  3273  0426  1C03               	skipc
  3274  0427  2C2C               	goto	l1175
  3275  0428  0870               	movf	___awmod@divisor,w
  3276  0429  02F2               	subwf	___awmod@dividend,f
  3277  042A  0871               	movf	___awmod@divisor+1,w
  3278  042B  3BF3               	subwfb	___awmod@dividend+1,f
  3279  042C                     l1175:	
  3280  042C  3001               	movlw	1
  3281  042D                     u695:	
  3282  042D  36F1               	lsrf	___awmod@divisor+1,f
  3283  042E  0CF0               	rrf	___awmod@divisor,f
  3284  042F  0B89               	decfsz	9,f
  3285  0430  2C2D               	goto	u695
  3286  0431  3001               	movlw	1
  3287  0432  02F5               	subwf	___awmod@counter,f
  3288  0433  1D03               	btfss	3,2
  3289  0434  2C20               	goto	l1171
  3290  0435                     l1179:	
  3291  0435  0876               	movf	___awmod@sign,w
  3292  0436  1903               	btfsc	3,2
  3293  0437  2C3D               	goto	l1183
  3294  0438  09F2               	comf	___awmod@dividend,f
  3295  0439  09F3               	comf	___awmod@dividend+1,f
  3296  043A  0AF2               	incf	___awmod@dividend,f
  3297  043B  1903               	skipnz
  3298  043C  0AF3               	incf	___awmod@dividend+1,f
  3299  043D                     l1183:	
  3300  043D  0873               	movf	___awmod@dividend+1,w
  3301  043E  00F1               	movwf	?___awmod+1
  3302  043F  0872               	movf	___awmod@dividend,w
  3303  0440  00F0               	movwf	?___awmod
  3304  0441  0008               	return
  3305  0442                     __end_of___awmod:	
  3306                           
  3307                           	psect	text5
  3308  04D6                     __ptext5:	
  3309 ;; *************** function ___awdiv *****************
  3310 ;; Defined at:
  3311 ;;		line 5 in file "C:\Program Files (x86)\Microchip\xc8\v2.05\pic\sources\c99\common\awdiv.c"
  3312 ;; Parameters:    Size  Location     Type
  3313 ;;  divisor         2    0[COMMON] int 
  3314 ;;  dividend        2    2[COMMON] int 
  3315 ;; Auto vars:     Size  Location     Type
  3316 ;;  quotient        2    7[COMMON] int 
  3317 ;;  sign            1    6[COMMON] unsigned char 
  3318 ;;  counter         1    5[COMMON] unsigned char 
  3319 ;; Return value:  Size  Location     Type
  3320 ;;                  2    0[COMMON] int 
  3321 ;; Registers used:
  3322 ;;		wreg, status,2, status,0
  3323 ;; Tracked objects:
  3324 ;;		On entry : 0/0
  3325 ;;		On exit  : 0/0
  3326 ;;		Unchanged: 0/0
  3327 ;; Data sizes:     COMMON   BANK0   BANK1   BANK2   BANK3   BANK4   BANK5   BANK6   BANK7   BANK8   BANK9  BANK10  BANK1
      +1  BANK12  BANK13  BANK14  BANK15  BANK16  BANK17  BANK18  BANK19  BANK20  BANK21  BANK22  BANK23  BANK24  BANK25
  3328 ;;      Params:         4       0       0       0       0       0       0       0       0       0       0       0       
      +0       0       0       0       0       0       0       0       0       0       0       0       0       0       0
  3329 ;;      Locals:         4       0       0       0       0       0       0       0       0       0       0       0       
      +0       0       0       0       0       0       0       0       0       0       0       0       0       0       0
  3330 ;;      Temps:          1       0       0       0       0       0       0       0       0       0       0       0       
      +0       0       0       0       0       0       0       0       0       0       0       0       0       0       0
  3331 ;;      Totals:         9       0       0       0       0       0       0       0       0       0       0       0       
      +0       0       0       0       0       0       0       0       0       0       0       0       0       0       0
  3332 ;;Total ram usage:        9 bytes
  3333 ;; Hardware stack levels used:    1
  3334 ;; This function calls:
  3335 ;;		Nothing
  3336 ;; This function is called by:
  3337 ;;		_ldra_int_to_dec
  3338 ;;		_ldra_sprintf
  3339 ;; This function uses a non-reentrant model
  3340 ;;
  3341                           
  3342                           
  3343                           ;psect for function ___awdiv
  3344  04D6                     ___awdiv:	
  3345                           
  3346                           ;incstack = 0
  3347                           ; Regs used in ___awdiv: [wreg+status,2+status,0]
  3348  04D6  01F6               	clrf	___awdiv@sign
  3349  04D7  1FF1               	btfss	___awdiv@divisor+1,7
  3350  04D8  2CE0               	goto	l1113
  3351  04D9  09F0               	comf	___awdiv@divisor,f
  3352  04DA  09F1               	comf	___awdiv@divisor+1,f
  3353  04DB  0AF0               	incf	___awdiv@divisor,f
  3354  04DC  1903               	skipnz
  3355  04DD  0AF1               	incf	___awdiv@divisor+1,f
  3356  04DE  01F6               	clrf	___awdiv@sign
  3357  04DF  0AF6               	incf	___awdiv@sign,f
  3358  04E0                     l1113:	
  3359  04E0  1FF3               	btfss	___awdiv@dividend+1,7
  3360  04E1  2CEB               	goto	l1119
  3361  04E2  09F2               	comf	___awdiv@dividend,f
  3362  04E3  09F3               	comf	___awdiv@dividend+1,f
  3363  04E4  0AF2               	incf	___awdiv@dividend,f
  3364  04E5  1903               	skipnz
  3365  04E6  0AF3               	incf	___awdiv@dividend+1,f
  3366  04E7  3001               	movlw	1
  3367  04E8  00F4               	movwf	??___awdiv
  3368  04E9  0874               	movf	??___awdiv,w
  3369  04EA  06F6               	xorwf	___awdiv@sign,f
  3370  04EB                     l1119:	
  3371  04EB  01F7               	clrf	___awdiv@quotient
  3372  04EC  01F8               	clrf	___awdiv@quotient+1
  3373  04ED  0870               	movf	___awdiv@divisor,w
  3374  04EE  0471               	iorwf	___awdiv@divisor+1,w
  3375  04EF  1903               	btfsc	3,2
  3376  04F0  2D1A               	goto	l1141
  3377  04F1  01F5               	clrf	___awdiv@counter
  3378  04F2  0AF5               	incf	___awdiv@counter,f
  3379  04F3                     l1129:	
  3380  04F3  1BF1               	btfsc	___awdiv@divisor+1,7
  3381  04F4  2CFF               	goto	l1131
  3382  04F5  3001               	movlw	1
  3383  04F6                     u565:	
  3384  04F6  35F0               	lslf	___awdiv@divisor,f
  3385  04F7  0DF1               	rlf	___awdiv@divisor+1,f
  3386  04F8  0B89               	decfsz	9,f
  3387  04F9  2CF6               	goto	u565
  3388  04FA  3001               	movlw	1
  3389  04FB  00F4               	movwf	??___awdiv
  3390  04FC  0874               	movf	??___awdiv,w
  3391  04FD  07F5               	addwf	___awdiv@counter,f
  3392  04FE  2CF3               	goto	l1129
  3393  04FF                     l1131:	
  3394  04FF  3001               	movlw	1
  3395  0500                     u585:	
  3396  0500  35F7               	lslf	___awdiv@quotient,f
  3397  0501  0DF8               	rlf	___awdiv@quotient+1,f
  3398  0502  0B89               	decfsz	9,f
  3399  0503  2D00               	goto	u585
  3400  0504  0871               	movf	___awdiv@divisor+1,w
  3401  0505  0273               	subwf	___awdiv@dividend+1,w
  3402  0506  1D03               	skipz
  3403  0507  2D0A               	goto	u595
  3404  0508  0870               	movf	___awdiv@divisor,w
  3405  0509  0272               	subwf	___awdiv@dividend,w
  3406  050A                     u595:	
  3407  050A  1C03               	skipc
  3408  050B  2D11               	goto	l1137
  3409  050C  0870               	movf	___awdiv@divisor,w
  3410  050D  02F2               	subwf	___awdiv@dividend,f
  3411  050E  0871               	movf	___awdiv@divisor+1,w
  3412  050F  3BF3               	subwfb	___awdiv@dividend+1,f
  3413  0510  1477               	bsf	___awdiv@quotient,0
  3414  0511                     l1137:	
  3415  0511  3001               	movlw	1
  3416  0512                     u605:	
  3417  0512  36F1               	lsrf	___awdiv@divisor+1,f
  3418  0513  0CF0               	rrf	___awdiv@divisor,f
  3419  0514  0B89               	decfsz	9,f
  3420  0515  2D12               	goto	u605
  3421  0516  3001               	movlw	1
  3422  0517  02F5               	subwf	___awdiv@counter,f
  3423  0518  1D03               	btfss	3,2
  3424  0519  2CFF               	goto	l1131
  3425  051A                     l1141:	
  3426  051A  0876               	movf	___awdiv@sign,w
  3427  051B  1903               	btfsc	3,2
  3428  051C  2D22               	goto	l1145
  3429  051D  09F7               	comf	___awdiv@quotient,f
  3430  051E  09F8               	comf	___awdiv@quotient+1,f
  3431  051F  0AF7               	incf	___awdiv@quotient,f
  3432  0520  1903               	skipnz
  3433  0521  0AF8               	incf	___awdiv@quotient+1,f
  3434  0522                     l1145:	
  3435  0522  0878               	movf	___awdiv@quotient+1,w
  3436  0523  00F1               	movwf	?___awdiv+1
  3437  0524  0877               	movf	___awdiv@quotient,w
  3438  0525  00F0               	movwf	?___awdiv
  3439  0526  0008               	return
  3440  0527                     __end_of___awdiv:	
  3441                           
  3442                           	psect	text6
  3443  037B                     __ptext6:	
  3444 ;; *************** function ___wmul *****************
  3445 ;; Defined at:
  3446 ;;		line 15 in file "C:\Program Files (x86)\Microchip\xc8\v2.05\pic\sources\c99\common\Umul16.c"
  3447 ;; Parameters:    Size  Location     Type
  3448 ;;  multiplier      2    0[COMMON] unsigned int 
  3449 ;;  multiplicand    2    2[COMMON] unsigned int 
  3450 ;; Auto vars:     Size  Location     Type
  3451 ;;  product         2    4[COMMON] unsigned int 
  3452 ;; Return value:  Size  Location     Type
  3453 ;;                  2    0[COMMON] unsigned int 
  3454 ;; Registers used:
  3455 ;;		wreg, status,2, status,0
  3456 ;; Tracked objects:
  3457 ;;		On entry : 0/0
  3458 ;;		On exit  : 0/0
  3459 ;;		Unchanged: 0/0
  3460 ;; Data sizes:     COMMON   BANK0   BANK1   BANK2   BANK3   BANK4   BANK5   BANK6   BANK7   BANK8   BANK9  BANK10  BANK1
      +1  BANK12  BANK13  BANK14  BANK15  BANK16  BANK17  BANK18  BANK19  BANK20  BANK21  BANK22  BANK23  BANK24  BANK25
  3461 ;;      Params:         4       0       0       0       0       0       0       0       0       0       0       0       
      +0       0       0       0       0       0       0       0       0       0       0       0       0       0       0
  3462 ;;      Locals:         2       0       0       0       0       0       0       0       0       0       0       0       
      +0       0       0       0       0       0       0       0       0       0       0       0       0       0       0
  3463 ;;      Temps:          0       0       0       0       0       0       0       0       0       0       0       0       
      +0       0       0       0       0       0       0       0       0       0       0       0       0       0       0
  3464 ;;      Totals:         6       0       0       0       0       0       0       0       0       0       0       0       
      +0       0       0       0       0       0       0       0       0       0       0       0       0       0       0
  3465 ;;Total ram usage:        6 bytes
  3466 ;; Hardware stack levels used:    1
  3467 ;; This function calls:
  3468 ;;		Nothing
  3469 ;; This function is called by:
  3470 ;;		_ldra_sprintf
  3471 ;; This function uses a non-reentrant model
  3472 ;;
  3473                           
  3474                           
  3475                           ;psect for function ___wmul
  3476  037B                     ___wmul:	
  3477                           
  3478                           ;incstack = 0
  3479                           ; Regs used in ___wmul: [wreg+status,2+status,0]
  3480  037B  01F4               	clrf	___wmul@product
  3481  037C  01F5               	clrf	___wmul@product+1
  3482  037D                     l1225:	
  3483  037D  1C70               	btfss	___wmul@multiplier,0
  3484  037E  2B83               	goto	l269
  3485  037F  0872               	movf	___wmul@multiplicand,w
  3486  0380  07F4               	addwf	___wmul@product,f
  3487  0381  0873               	movf	___wmul@multiplicand+1,w
  3488  0382  3DF5               	addwfc	___wmul@product+1,f
  3489  0383                     l269:	
  3490  0383  3001               	movlw	1
  3491  0384                     u795:	
  3492  0384  35F2               	lslf	___wmul@multiplicand,f
  3493  0385  0DF3               	rlf	___wmul@multiplicand+1,f
  3494  0386  0B89               	decfsz	9,f
  3495  0387  2B84               	goto	u795
  3496  0388  3001               	movlw	1
  3497  0389                     u805:	
  3498  0389  36F1               	lsrf	___wmul@multiplier+1,f
  3499  038A  0CF0               	rrf	___wmul@multiplier,f
  3500  038B  0B89               	decfsz	9,f
  3501  038C  2B89               	goto	u805
  3502  038D  0870               	movf	___wmul@multiplier,w
  3503  038E  0471               	iorwf	___wmul@multiplier+1,w
  3504  038F  1D03               	btfss	3,2
  3505  0390  2B7D               	goto	l1225
  3506  0391  0875               	movf	___wmul@product+1,w
  3507  0392  00F1               	movwf	?___wmul+1
  3508  0393  0874               	movf	___wmul@product,w
  3509  0394  00F0               	movwf	?___wmul
  3510  0395  0008               	return
  3511  0396                     __end_of___wmul:	
  3512                           
  3513                           	psect	text7
  3514  0351                     __ptext7:	
  3515 ;; *************** function ___bmul *****************
  3516 ;; Defined at:
  3517 ;;		line 4 in file "C:\Program Files (x86)\Microchip\xc8\v2.05\pic\sources\c99\common\Umul8.c"
  3518 ;; Parameters:    Size  Location     Type
  3519 ;;  multiplier      1    wreg     unsigned char 
  3520 ;;  multiplicand    1    0[COMMON] unsigned char 
  3521 ;; Auto vars:     Size  Location     Type
  3522 ;;  multiplier      1    3[COMMON] unsigned char 
  3523 ;;  product         1    2[COMMON] unsigned char 
  3524 ;; Return value:  Size  Location     Type
  3525 ;;                  1    wreg      unsigned char 
  3526 ;; Registers used:
  3527 ;;		wreg, status,2, status,0
  3528 ;; Tracked objects:
  3529 ;;		On entry : 0/0
  3530 ;;		On exit  : 0/0
  3531 ;;		Unchanged: 0/0
  3532 ;; Data sizes:     COMMON   BANK0   BANK1   BANK2   BANK3   BANK4   BANK5   BANK6   BANK7   BANK8   BANK9  BANK10  BANK1
      +1  BANK12  BANK13  BANK14  BANK15  BANK16  BANK17  BANK18  BANK19  BANK20  BANK21  BANK22  BANK23  BANK24  BANK25
  3533 ;;      Params:         1       0       0       0       0       0       0       0       0       0       0       0       
      +0       0       0       0       0       0       0       0       0       0       0       0       0       0       0
  3534 ;;      Locals:         2       0       0       0       0       0       0       0       0       0       0       0       
      +0       0       0       0       0       0       0       0       0       0       0       0       0       0       0
  3535 ;;      Temps:          1       0       0       0       0       0       0       0       0       0       0       0       
      +0       0       0       0       0       0       0       0       0       0       0       0       0       0       0
  3536 ;;      Totals:         4       0       0       0       0       0       0       0       0       0       0       0       
      +0       0       0       0       0       0       0       0       0       0       0       0       0       0       0
  3537 ;;Total ram usage:        4 bytes
  3538 ;; Hardware stack levels used:    1
  3539 ;; This function calls:
  3540 ;;		Nothing
  3541 ;; This function is called by:
  3542 ;;		_ldra_sprintf
  3543 ;; This function uses a non-reentrant model
  3544 ;;
  3545                           
  3546                           
  3547                           ;psect for function ___bmul
  3548  0351                     ___bmul:	
  3549                           
  3550                           ;incstack = 0
  3551                           ; Regs used in ___bmul: [wreg+status,2+status,0]
  3552                           ;___bmul@multiplier stored from wreg
  3553  0351  00F3               	movwf	___bmul@multiplier
  3554  0352  01F2               	clrf	___bmul@product
  3555  0353                     l1239:	
  3556  0353  1C73               	btfss	___bmul@multiplier,0
  3557  0354  2B59               	goto	l1243
  3558  0355  0870               	movf	___bmul@multiplicand,w
  3559  0356  00F1               	movwf	??___bmul
  3560  0357  0871               	movf	??___bmul,w
  3561  0358  07F2               	addwf	___bmul@product,f
  3562  0359                     l1243:	
  3563  0359  1003               	clrc
  3564  035A  0DF0               	rlf	___bmul@multiplicand,f
  3565  035B  1003               	clrc
  3566  035C  0CF3               	rrf	___bmul@multiplier,f
  3567  035D  0873               	movf	___bmul@multiplier,w
  3568  035E  1D03               	btfss	3,2
  3569  035F  2B53               	goto	l1239
  3570  0360  0872               	movf	___bmul@product,w
  3571  0361  0008               	return
  3572  0362                     __end_of___bmul:	
  3573                           
  3574                           	psect	text8
  3575  0442                     __ptext8:	
  3576 ;; *************** function _ldra_port_write *****************
  3577 ;; Defined at:
  3578 ;;		line 51 in file "C:\LDRA_Toolsuite\Compiler_spec\Microchip\xc8\ldra_port.c"
  3579 ;; Parameters:    Size  Location     Type
  3580 ;;  pMsg            2    4[COMMON] PTR const unsigned char 
  3581 ;;		 -> STR_17(45), STR_15(23), STR_14(22), STR_3(17), 
  3582 ;;		 -> STR_2(16), main@msg(64), CPU(20), 
  3583 ;; Auto vars:     Size  Location     Type
  3584 ;;		None
  3585 ;; Return value:  Size  Location     Type
  3586 ;;                  1    wreg      void 
  3587 ;; Registers used:
  3588 ;;		wreg, fsr0l, fsr0h, fsr1l, fsr1h, status,2, status,0, pclath, cstack
  3589 ;; Tracked objects:
  3590 ;;		On entry : 0/0
  3591 ;;		On exit  : 0/0
  3592 ;;		Unchanged: 0/0
  3593 ;; Data sizes:     COMMON   BANK0   BANK1   BANK2   BANK3   BANK4   BANK5   BANK6   BANK7   BANK8   BANK9  BANK10  BANK1
      +1  BANK12  BANK13  BANK14  BANK15  BANK16  BANK17  BANK18  BANK19  BANK20  BANK21  BANK22  BANK23  BANK24  BANK25
  3594 ;;      Params:         2       0       0       0       0       0       0       0       0       0       0       0       
      +0       0       0       0       0       0       0       0       0       0       0       0       0       0       0
  3595 ;;      Locals:         0       0       0       0       0       0       0       0       0       0       0       0       
      +0       0       0       0       0       0       0       0       0       0       0       0       0       0       0
  3596 ;;      Temps:          5       0       0       0       0       0       0       0       0       0       0       0       
      +0       0       0       0       0       0       0       0       0       0       0       0       0       0       0
  3597 ;;      Totals:         7       0       0       0       0       0       0       0       0       0       0       0       
      +0       0       0       0       0       0       0       0       0       0       0       0       0       0       0
  3598 ;;Total ram usage:        7 bytes
  3599 ;; Hardware stack levels used:    1
  3600 ;; Hardware stack levels required when called:    1
  3601 ;; This function calls:
  3602 ;;		_ldra_upload
  3603 ;; This function is called by:
  3604 ;;		_main
  3605 ;; This function uses a non-reentrant model
  3606 ;;
  3607                           
  3608                           
  3609                           ;psect for function _ldra_port_write
  3610  0442                     _ldra_port_write:	
  3611                           
  3612                           ;C:\LDRA_Toolsuite\Compiler_spec\Microchip\xc8\ldra_port.c: 68:   if (pMsg != 0) {
  3613                           
  3614                           ;incstack = 0
  3615                           ; Regs used in _ldra_port_write: [wreg-fsr1h+status,2+status,0+pclath+cstack]
  3616  0442  0874               	movf	ldra_port_write@pMsg,w
  3617  0443  0475               	iorwf	ldra_port_write@pMsg+1,w
  3618  0444  1903               	btfsc	3,2
  3619  0445  0008               	return
  3620  0446                     l1375:	
  3621                           
  3622                           ;C:\LDRA_Toolsuite\Compiler_spec\Microchip\xc8\ldra_port.c: 70:     while (*pMsg != 0) {
  3623  0446  0874               	movf	ldra_port_write@pMsg,w
  3624  0447  0084               	movwf	4
  3625  0448  0875               	movf	ldra_port_write@pMsg+1,w
  3626  0449  0085               	movwf	5
  3627  044A  0012               	moviw fsr0++
  3628  044B  1903               	btfsc	3,2
  3629  044C  2C7B               	goto	l1377
  3630                           
  3631                           ;C:\LDRA_Toolsuite\Compiler_spec\Microchip\xc8\ldra_port.c: 72:       ldra_message[iter_
      +                          ldra_message] = *pMsg;
  3632  044D  0874               	movf	ldra_port_write@pMsg,w
  3633  044E  0084               	movwf	4
  3634  044F  0875               	movf	ldra_port_write@pMsg+1,w
  3635  0450  0085               	movwf	5
  3636  0451  0800               	movf	0,w	;code access
  3637  0452  00F6               	movwf	??_ldra_port_write
  3638  0453  30EF               	movlw	239
  3639  0454  00F7               	movwf	??_ldra_port_write+1
  3640  0455  3026               	movlw	38
  3641  0456  00F8               	movwf	??_ldra_port_write+2
  3642  0457  0020               	movlb	0	; select bank0
  3643  0458  0849               	movf	_iter_ldra_message,w
  3644  0459  0777               	addwf	??_ldra_port_write+1,w
  3645  045A  00F9               	movwf	??_ldra_port_write+3
  3646  045B  084A               	movf	_iter_ldra_message+1,w
  3647  045C  3D78               	addwfc	??_ldra_port_write+2,w
  3648  045D  00FA               	movwf	??_ldra_port_write+4
  3649  045E  0879               	movf	??_ldra_port_write+3,w
  3650  045F  0086               	movwf	6
  3651  0460  087A               	movf	??_ldra_port_write+4,w
  3652  0461  0087               	movwf	7
  3653  0462  0876               	movf	??_ldra_port_write,w
  3654  0463  0081               	movwf	1
  3655                           
  3656                           ;C:\LDRA_Toolsuite\Compiler_spec\Microchip\xc8\ldra_port.c: 73:       iter_ldra_message+
      +                          +;
  3657  0464  3001               	movlw	1
  3658  0465  07C9               	addwf	_iter_ldra_message,f
  3659  0466  3000               	movlw	0
  3660  0467  3DCA               	addwfc	_iter_ldra_message+1,f
  3661                           
  3662                           ;C:\LDRA_Toolsuite\Compiler_spec\Microchip\xc8\ldra_port.c: 75:       if ( iter_ldra_mes
      +                          sage >= 256 ) {
  3663  0468  084A               	movf	_iter_ldra_message+1,w
  3664  0469  3A80               	xorlw	128
  3665  046A  00F6               	movwf	??_ldra_port_write
  3666  046B  3081               	movlw	129
  3667  046C  0276               	subwf	??_ldra_port_write,w
  3668  046D  1D03               	skipz
  3669  046E  2C71               	goto	u1005
  3670  046F  3000               	movlw	0
  3671  0470  0249               	subwf	_iter_ldra_message,w
  3672  0471                     u1005:	
  3673  0471  1C03               	skipc
  3674  0472  2C76               	goto	l1373
  3675                           
  3676                           ;C:\LDRA_Toolsuite\Compiler_spec\Microchip\xc8\ldra_port.c: 77:         ldra_upload();
  3677  0473  3183  23B4  3184   	fcall	_ldra_upload
  3678  0476                     l1373:	
  3679                           
  3680                           ;C:\LDRA_Toolsuite\Compiler_spec\Microchip\xc8\ldra_port.c: 80:       pMsg++;
  3681  0476  3001               	movlw	1
  3682  0477  07F4               	addwf	ldra_port_write@pMsg,f
  3683  0478  3000               	movlw	0
  3684  0479  3DF5               	addwfc	ldra_port_write@pMsg+1,f
  3685  047A  2C46               	goto	l1375
  3686  047B                     l1377:	
  3687                           
  3688                           ;C:\LDRA_Toolsuite\Compiler_spec\Microchip\xc8\ldra_port.c: 82:     ldra_message[iter_ld
      +                          ra_message]=0;
  3689  047B  30EF               	movlw	239
  3690  047C  00F6               	movwf	??_ldra_port_write
  3691  047D  3026               	movlw	38
  3692  047E  00F7               	movwf	??_ldra_port_write+1
  3693  047F  0020               	movlb	0	; select bank0
  3694  0480  0849               	movf	_iter_ldra_message,w
  3695  0481  0776               	addwf	??_ldra_port_write,w
  3696  0482  0086               	movwf	6
  3697  0483  084A               	movf	_iter_ldra_message+1,w
  3698  0484  3D77               	addwfc	??_ldra_port_write+1,w
  3699  0485  0087               	movwf	7
  3700  0486  0181               	clrf	1
  3701  0487  0008               	return
  3702  0488                     __end_of_ldra_port_write:	
  3703                           
  3704                           	psect	text9
  3705  0362                     __ptext9:	
  3706 ;; *************** function _ldra_port_open *****************
  3707 ;; Defined at:
  3708 ;;		line 12 in file "C:\LDRA_Toolsuite\Compiler_spec\Microchip\xc8\ldra_port_common.c"
  3709 ;; Parameters:    Size  Location     Type
  3710 ;;		None
  3711 ;; Auto vars:     Size  Location     Type
  3712 ;;		None
  3713 ;; Return value:  Size  Location     Type
  3714 ;;                  2   65[None  ] int 
  3715 ;; Registers used:
  3716 ;;		wreg, fsr1l, fsr1h, status,2, status,0, pclath, cstack
  3717 ;; Tracked objects:
  3718 ;;		On entry : 0/0
  3719 ;;		On exit  : 0/0
  3720 ;;		Unchanged: 0/0
  3721 ;; Data sizes:     COMMON   BANK0   BANK1   BANK2   BANK3   BANK4   BANK5   BANK6   BANK7   BANK8   BANK9  BANK10  BANK1
      +1  BANK12  BANK13  BANK14  BANK15  BANK16  BANK17  BANK18  BANK19  BANK20  BANK21  BANK22  BANK23  BANK24  BANK25
  3722 ;;      Params:         0       0       0       0       0       0       0       0       0       0       0       0       
      +0       0       0       0       0       0       0       0       0       0       0       0       0       0       0
  3723 ;;      Locals:         0       0       0       0       0       0       0       0       0       0       0       0       
      +0       0       0       0       0       0       0       0       0       0       0       0       0       0       0
  3724 ;;      Temps:          0       0       0       0       0       0       0       0       0       0       0       0       
      +0       0       0       0       0       0       0       0       0       0       0       0       0       0       0
  3725 ;;      Totals:         0       0       0       0       0       0       0       0       0       0       0       0       
      +0       0       0       0       0       0       0       0       0       0       0       0       0       0       0
  3726 ;;Total ram usage:        0 bytes
  3727 ;; Hardware stack levels used:    1
  3728 ;; Hardware stack levels required when called:    2
  3729 ;; This function calls:
  3730 ;;		_ldra_port_close
  3731 ;;		_ldra_port_init
  3732 ;;		_ldra_port_is_configured
  3733 ;; This function is called by:
  3734 ;;		_main
  3735 ;; This function uses a non-reentrant model
  3736 ;;
  3737                           
  3738                           
  3739                           ;psect for function _ldra_port_open
  3740  0362                     _ldra_port_open:	
  3741                           
  3742                           ;C:\LDRA_Toolsuite\Compiler_spec\Microchip\xc8\ldra_port_common.c: 13:   ldra_fileid = 1
      +                          ;
  3743                           
  3744                           ;incstack = 0
  3745                           ; Regs used in _ldra_port_open: [wreg+fsr1l+fsr1h+status,2+status,0+pclath+cstack]
  3746  0362  3001               	movlw	1
  3747  0363  0020               	movlb	0	; select bank0
  3748  0364  00CD               	movwf	_ldra_fileid
  3749  0365  3000               	movlw	0
  3750  0366  00CE               	movwf	_ldra_fileid+1
  3751                           
  3752                           ;C:\LDRA_Toolsuite\Compiler_spec\Microchip\xc8\ldra_port_common.c: 18:   if ( ldra_port_
      +                          is_configured() == 0 ) {
  3753  0367  3183  232A  3183   	fcall	_ldra_port_is_configured
  3754  036A  0870               	movf	?_ldra_port_is_configured,w
  3755  036B  0471               	iorwf	?_ldra_port_is_configured+1,w
  3756  036C  1D03               	btfss	3,2
  3757  036D  2B71               	goto	l1385
  3758                           
  3759                           ;C:\LDRA_Toolsuite\Compiler_spec\Microchip\xc8\ldra_port_common.c: 19:     ldra_port_ini
      +                          t();
  3760  036E  3183  23D8  3183   	fcall	_ldra_port_init
  3761  0371                     l1385:	
  3762                           
  3763                           ;C:\LDRA_Toolsuite\Compiler_spec\Microchip\xc8\ldra_port_common.c: 22:   if ( ldra_port_
      +                          is_configured() == 0 ) {
  3764  0371  3183  232A  3183   	fcall	_ldra_port_is_configured
  3765  0374  0870               	movf	?_ldra_port_is_configured,w
  3766  0375  0471               	iorwf	?_ldra_port_is_configured+1,w
  3767  0376  1D03               	btfss	3,2
  3768  0377  0008               	return
  3769                           
  3770                           ;C:\LDRA_Toolsuite\Compiler_spec\Microchip\xc8\ldra_port_common.c: 23:     ldra_port_clo
      +                          se();
  3771  0378  3183  233A         	fcall	_ldra_port_close
  3772  037A  0008               	return
  3773  037B                     __end_of_ldra_port_open:	
  3774                           
  3775                           	psect	text10
  3776  032A                     __ptext10:	
  3777 ;; *************** function _ldra_port_is_configured *****************
  3778 ;; Defined at:
  3779 ;;		line 4 in file "C:\LDRA_Toolsuite\Compiler_spec\Microchip\xc8\ldra_port_common.c"
  3780 ;; Parameters:    Size  Location     Type
  3781 ;;		None
  3782 ;; Auto vars:     Size  Location     Type
  3783 ;;		None
  3784 ;; Return value:  Size  Location     Type
  3785 ;;                  2    0[COMMON] int 
  3786 ;; Registers used:
  3787 ;;		wreg
  3788 ;; Tracked objects:
  3789 ;;		On entry : 0/0
  3790 ;;		On exit  : 0/0
  3791 ;;		Unchanged: 0/0
  3792 ;; Data sizes:     COMMON   BANK0   BANK1   BANK2   BANK3   BANK4   BANK5   BANK6   BANK7   BANK8   BANK9  BANK10  BANK1
      +1  BANK12  BANK13  BANK14  BANK15  BANK16  BANK17  BANK18  BANK19  BANK20  BANK21  BANK22  BANK23  BANK24  BANK25
  3793 ;;      Params:         2       0       0       0       0       0       0       0       0       0       0       0       
      +0       0       0       0       0       0       0       0       0       0       0       0       0       0       0
  3794 ;;      Locals:         0       0       0       0       0       0       0       0       0       0       0       0       
      +0       0       0       0       0       0       0       0       0       0       0       0       0       0       0
  3795 ;;      Temps:          0       0       0       0       0       0       0       0       0       0       0       0       
      +0       0       0       0       0       0       0       0       0       0       0       0       0       0       0
  3796 ;;      Totals:         2       0       0       0       0       0       0       0       0       0       0       0       
      +0       0       0       0       0       0       0       0       0       0       0       0       0       0       0
  3797 ;;Total ram usage:        2 bytes
  3798 ;; Hardware stack levels used:    1
  3799 ;; This function calls:
  3800 ;;		Nothing
  3801 ;; This function is called by:
  3802 ;;		_ldra_port_open
  3803 ;; This function uses a non-reentrant model
  3804 ;;
  3805                           
  3806                           
  3807                           ;psect for function _ldra_port_is_configured
  3808  032A                     _ldra_port_is_configured:	
  3809                           
  3810                           ;C:\LDRA_Toolsuite\Compiler_spec\Microchip\xc8\ldra_port_common.c: 5:   return Configure
      +                          d;
  3811                           
  3812                           ;incstack = 0
  3813                           ; Regs used in _ldra_port_is_configured: [wreg]
  3814  032A  0020               	movlb	0	; select bank0
  3815  032B  084C               	movf	_Configured+1,w
  3816  032C  00F1               	movwf	?_ldra_port_is_configured+1
  3817  032D  084B               	movf	_Configured,w
  3818  032E  00F0               	movwf	?_ldra_port_is_configured
  3819  032F  0008               	return
  3820  0330                     __end_of_ldra_port_is_configured:	
  3821                           
  3822                           	psect	text11
  3823  03D8                     __ptext11:	
  3824 ;; *************** function _ldra_port_init *****************
  3825 ;; Defined at:
  3826 ;;		line 23 in file "C:\LDRA_Toolsuite\Compiler_spec\Microchip\xc8\ldra_port.c"
  3827 ;; Parameters:    Size  Location     Type
  3828 ;;		None
  3829 ;; Auto vars:     Size  Location     Type
  3830 ;;  iter            2    2[COMMON] int 
  3831 ;; Return value:  Size  Location     Type
  3832 ;;                  1    wreg      void 
  3833 ;; Registers used:
  3834 ;;		wreg, fsr1l, fsr1h, status,2, status,0
  3835 ;; Tracked objects:
  3836 ;;		On entry : 0/0
  3837 ;;		On exit  : 0/0
  3838 ;;		Unchanged: 0/0
  3839 ;; Data sizes:     COMMON   BANK0   BANK1   BANK2   BANK3   BANK4   BANK5   BANK6   BANK7   BANK8   BANK9  BANK10  BANK1
      +1  BANK12  BANK13  BANK14  BANK15  BANK16  BANK17  BANK18  BANK19  BANK20  BANK21  BANK22  BANK23  BANK24  BANK25
  3840 ;;      Params:         0       0       0       0       0       0       0       0       0       0       0       0       
      +0       0       0       0       0       0       0       0       0       0       0       0       0       0       0
  3841 ;;      Locals:         2       0       0       0       0       0       0       0       0       0       0       0       
      +0       0       0       0       0       0       0       0       0       0       0       0       0       0       0
  3842 ;;      Temps:          2       0       0       0       0       0       0       0       0       0       0       0       
      +0       0       0       0       0       0       0       0       0       0       0       0       0       0       0
  3843 ;;      Totals:         4       0       0       0       0       0       0       0       0       0       0       0       
      +0       0       0       0       0       0       0       0       0       0       0       0       0       0       0
  3844 ;;Total ram usage:        4 bytes
  3845 ;; Hardware stack levels used:    1
  3846 ;; This function calls:
  3847 ;;		Nothing
  3848 ;; This function is called by:
  3849 ;;		_ldra_port_open
  3850 ;; This function uses a non-reentrant model
  3851 ;;
  3852                           
  3853                           
  3854                           ;psect for function _ldra_port_init
  3855  03D8                     _ldra_port_init:	
  3856                           
  3857                           ;C:\LDRA_Toolsuite\Compiler_spec\Microchip\xc8\ldra_port.c: 37:   int iter;;C:\LDRA_Tool
      +                          suite\Compiler_spec\Microchip\xc8\ldra_port.c: 38:   iter_ldra_message=0;
  3858                           
  3859                           ;incstack = 0
  3860                           ; Regs used in _ldra_port_init: [wreg+fsr1l+fsr1h+status,2+status,0]
  3861  03D8  0020               	movlb	0	; select bank0
  3862  03D9  01C9               	clrf	_iter_ldra_message
  3863  03DA  01CA               	clrf	_iter_ldra_message+1
  3864                           
  3865                           ;C:\LDRA_Toolsuite\Compiler_spec\Microchip\xc8\ldra_port.c: 39:   for ( iter=0; iter<(25
      +                          6+1); iter++ ) {
  3866  03DB  01F2               	clrf	ldra_port_init@iter
  3867  03DC  01F3               	clrf	ldra_port_init@iter+1
  3868  03DD                     l1257:	
  3869                           
  3870                           ;C:\LDRA_Toolsuite\Compiler_spec\Microchip\xc8\ldra_port.c: 40:     ldra_message[iter] =
      +                           0;
  3871  03DD  30EF               	movlw	239
  3872  03DE  00F0               	movwf	??_ldra_port_init
  3873  03DF  3026               	movlw	38
  3874  03E0  00F1               	movwf	??_ldra_port_init+1
  3875  03E1  0872               	movf	ldra_port_init@iter,w
  3876  03E2  0770               	addwf	??_ldra_port_init,w
  3877  03E3  0086               	movwf	6
  3878  03E4  0873               	movf	ldra_port_init@iter+1,w
  3879  03E5  3D71               	addwfc	??_ldra_port_init+1,w
  3880  03E6  0087               	movwf	7
  3881  03E7  0181               	clrf	1
  3882                           
  3883                           ;C:\LDRA_Toolsuite\Compiler_spec\Microchip\xc8\ldra_port.c: 41:   }
  3884  03E8  3001               	movlw	1
  3885  03E9  07F2               	addwf	ldra_port_init@iter,f
  3886  03EA  3000               	movlw	0
  3887  03EB  3DF3               	addwfc	ldra_port_init@iter+1,f
  3888  03EC  0873               	movf	ldra_port_init@iter+1,w
  3889  03ED  3A80               	xorlw	128
  3890  03EE  00F0               	movwf	??_ldra_port_init
  3891  03EF  3081               	movlw	129
  3892  03F0  0270               	subwf	??_ldra_port_init,w
  3893  03F1  1D03               	skipz
  3894  03F2  2BF5               	goto	u845
  3895  03F3  3001               	movlw	1
  3896  03F4  0272               	subwf	ldra_port_init@iter,w
  3897  03F5                     u845:	
  3898  03F5  1C03               	skipc
  3899  03F6  2BDD               	goto	l1257
  3900                           
  3901                           ;C:\LDRA_Toolsuite\Compiler_spec\Microchip\xc8\ldra_port.c: 43:   Configured = 1;
  3902  03F7  3001               	movlw	1
  3903  03F8  0020               	movlb	0	; select bank0
  3904  03F9  00CB               	movwf	_Configured
  3905  03FA  3000               	movlw	0
  3906  03FB  00CC               	movwf	_Configured+1
  3907  03FC  0008               	return
  3908  03FD                     __end_of_ldra_port_init:	
  3909                           
  3910                           	psect	text12
  3911  033A                     __ptext12:	
  3912 ;; *************** function _ldra_port_close *****************
  3913 ;; Defined at:
  3914 ;;		line 91 in file "C:\LDRA_Toolsuite\Compiler_spec\Microchip\xc8\ldra_port.c"
  3915 ;; Parameters:    Size  Location     Type
  3916 ;;		None
  3917 ;; Auto vars:     Size  Location     Type
  3918 ;;		None
  3919 ;; Return value:  Size  Location     Type
  3920 ;;                  1    wreg      void 
  3921 ;; Registers used:
  3922 ;;		wreg, fsr1l, fsr1h, status,2, status,0, pclath, cstack
  3923 ;; Tracked objects:
  3924 ;;		On entry : 0/0
  3925 ;;		On exit  : 0/0
  3926 ;;		Unchanged: 0/0
  3927 ;; Data sizes:     COMMON   BANK0   BANK1   BANK2   BANK3   BANK4   BANK5   BANK6   BANK7   BANK8   BANK9  BANK10  BANK1
      +1  BANK12  BANK13  BANK14  BANK15  BANK16  BANK17  BANK18  BANK19  BANK20  BANK21  BANK22  BANK23  BANK24  BANK25
  3928 ;;      Params:         0       0       0       0       0       0       0       0       0       0       0       0       
      +0       0       0       0       0       0       0       0       0       0       0       0       0       0       0
  3929 ;;      Locals:         0       0       0       0       0       0       0       0       0       0       0       0       
      +0       0       0       0       0       0       0       0       0       0       0       0       0       0       0
  3930 ;;      Temps:          0       0       0       0       0       0       0       0       0       0       0       0       
      +0       0       0       0       0       0       0       0       0       0       0       0       0       0       0
  3931 ;;      Totals:         0       0       0       0       0       0       0       0       0       0       0       0       
      +0       0       0       0       0       0       0       0       0       0       0       0       0       0       0
  3932 ;;Total ram usage:        0 bytes
  3933 ;; Hardware stack levels used:    1
  3934 ;; Hardware stack levels required when called:    1
  3935 ;; This function calls:
  3936 ;;		_ldra_exit
  3937 ;;		_ldra_upload
  3938 ;; This function is called by:
  3939 ;;		_ldra_port_open
  3940 ;;		_main
  3941 ;; This function uses a non-reentrant model
  3942 ;;
  3943                           
  3944                           
  3945                           ;psect for function _ldra_port_close
  3946  033A                     _ldra_port_close:	
  3947                           
  3948                           ;C:\LDRA_Toolsuite\Compiler_spec\Microchip\xc8\ldra_port.c: 97:   ldra_exit_reached=1;
  3949                           
  3950                           ;incstack = 0
  3951                           ; Regs used in _ldra_port_close: [wreg+fsr1l+fsr1h+status,2+status,0+pclath+cstack]
  3952  033A  3001               	movlw	1
  3953  033B  0020               	movlb	0	; select bank0
  3954  033C  00C7               	movwf	_ldra_exit_reached	;volatile
  3955  033D  3000               	movlw	0
  3956  033E  00C8               	movwf	_ldra_exit_reached+1	;volatile
  3957                           
  3958                           ;C:\LDRA_Toolsuite\Compiler_spec\Microchip\xc8\ldra_port.c: 98:   ldra_upload();
  3959  033F  3183  23B4  3183   	fcall	_ldra_upload
  3960                           
  3961                           ;C:\LDRA_Toolsuite\Compiler_spec\Microchip\xc8\ldra_port.c: 100:   ldra_exit();
  3962  0342  3183  2330         	fcall	_ldra_exit
  3963  0344  0008               	return
  3964  0345                     __end_of_ldra_port_close:	
  3965                           
  3966                           	psect	text13
  3967  03B4                     __ptext13:	
  3968 ;; *************** function _ldra_upload *****************
  3969 ;; Defined at:
  3970 ;;		line 116 in file "C:\LDRA_Toolsuite\Compiler_spec\Microchip\xc8\ldra_port.c"
  3971 ;; Parameters:    Size  Location     Type
  3972 ;;		None
  3973 ;; Auto vars:     Size  Location     Type
  3974 ;;  iter            2    2[COMMON] int 
  3975 ;; Return value:  Size  Location     Type
  3976 ;;                  1    wreg      void 
  3977 ;; Registers used:
  3978 ;;		wreg, fsr1l, fsr1h, status,2, status,0
  3979 ;; Tracked objects:
  3980 ;;		On entry : 0/0
  3981 ;;		On exit  : 0/0
  3982 ;;		Unchanged: 0/0
  3983 ;; Data sizes:     COMMON   BANK0   BANK1   BANK2   BANK3   BANK4   BANK5   BANK6   BANK7   BANK8   BANK9  BANK10  BANK1
      +1  BANK12  BANK13  BANK14  BANK15  BANK16  BANK17  BANK18  BANK19  BANK20  BANK21  BANK22  BANK23  BANK24  BANK25
  3984 ;;      Params:         0       0       0       0       0       0       0       0       0       0       0       0       
      +0       0       0       0       0       0       0       0       0       0       0       0       0       0       0
  3985 ;;      Locals:         2       0       0       0       0       0       0       0       0       0       0       0       
      +0       0       0       0       0       0       0       0       0       0       0       0       0       0       0
  3986 ;;      Temps:          2       0       0       0       0       0       0       0       0       0       0       0       
      +0       0       0       0       0       0       0       0       0       0       0       0       0       0       0
  3987 ;;      Totals:         4       0       0       0       0       0       0       0       0       0       0       0       
      +0       0       0       0       0       0       0       0       0       0       0       0       0       0       0
  3988 ;;Total ram usage:        4 bytes
  3989 ;; Hardware stack levels used:    1
  3990 ;; This function calls:
  3991 ;;		Nothing
  3992 ;; This function is called by:
  3993 ;;		_ldra_port_write
  3994 ;;		_ldra_port_close
  3995 ;; This function uses a non-reentrant model
  3996 ;;
  3997                           
  3998                           
  3999                           ;psect for function _ldra_upload
  4000  03B4                     _ldra_upload:	
  4001                           
  4002                           ;C:\LDRA_Toolsuite\Compiler_spec\Microchip\xc8\ldra_port.c: 117:   int iter;;C:\LDRA_Too
      +                          lsuite\Compiler_spec\Microchip\xc8\ldra_port.c: 128:   __nop();
  4003                           
  4004                           ;incstack = 0
  4005                           ; Regs used in _ldra_upload: [wreg+fsr1l+fsr1h+status,2+status,0]
  4006  03B4  0000               	nop
  4007                           
  4008                           ;C:\LDRA_Toolsuite\Compiler_spec\Microchip\xc8\ldra_port.c: 129:   __nop();
  4009  03B5  0000               	nop
  4010                           
  4011                           ;C:\LDRA_Toolsuite\Compiler_spec\Microchip\xc8\ldra_port.c: 130:   __nop();
  4012  03B6  0000               	nop
  4013                           
  4014                           ;C:\LDRA_Toolsuite\Compiler_spec\Microchip\xc8\ldra_port.c: 131:   __nop();
  4015  03B7  0000               	nop
  4016                           
  4017                           ;C:\LDRA_Toolsuite\Compiler_spec\Microchip\xc8\ldra_port.c: 134:   for ( iter=0; iter<(2
      +                          56+1); iter++ ) {
  4018  03B8  01F2               	clrf	ldra_upload@iter
  4019  03B9  01F3               	clrf	ldra_upload@iter+1
  4020  03BA                     l1195:	
  4021                           
  4022                           ;C:\LDRA_Toolsuite\Compiler_spec\Microchip\xc8\ldra_port.c: 135:     ldra_message[iter] 
      +                          = 0;
  4023  03BA  30EF               	movlw	239
  4024  03BB  00F0               	movwf	??_ldra_upload
  4025  03BC  3026               	movlw	38
  4026  03BD  00F1               	movwf	??_ldra_upload+1
  4027  03BE  0872               	movf	ldra_upload@iter,w
  4028  03BF  0770               	addwf	??_ldra_upload,w
  4029  03C0  0086               	movwf	6
  4030  03C1  0873               	movf	ldra_upload@iter+1,w
  4031  03C2  3D71               	addwfc	??_ldra_upload+1,w
  4032  03C3  0087               	movwf	7
  4033  03C4  0181               	clrf	1
  4034                           
  4035                           ;C:\LDRA_Toolsuite\Compiler_spec\Microchip\xc8\ldra_port.c: 136:   }
  4036  03C5  3001               	movlw	1
  4037  03C6  07F2               	addwf	ldra_upload@iter,f
  4038  03C7  3000               	movlw	0
  4039  03C8  3DF3               	addwfc	ldra_upload@iter+1,f
  4040  03C9  0873               	movf	ldra_upload@iter+1,w
  4041  03CA  3A80               	xorlw	128
  4042  03CB  00F0               	movwf	??_ldra_upload
  4043  03CC  3081               	movlw	129
  4044  03CD  0270               	subwf	??_ldra_upload,w
  4045  03CE  1D03               	skipz
  4046  03CF  2BD2               	goto	u725
  4047  03D0  3001               	movlw	1
  4048  03D1  0272               	subwf	ldra_upload@iter,w
  4049  03D2                     u725:	
  4050  03D2  1C03               	skipc
  4051  03D3  2BBA               	goto	l1195
  4052                           
  4053                           ;C:\LDRA_Toolsuite\Compiler_spec\Microchip\xc8\ldra_port.c: 137:   iter_ldra_message=0;
  4054  03D4  0020               	movlb	0	; select bank0
  4055  03D5  01C9               	clrf	_iter_ldra_message
  4056  03D6  01CA               	clrf	_iter_ldra_message+1
  4057  03D7  0008               	return
  4058  03D8                     __end_of_ldra_upload:	
  4059                           
  4060                           	psect	text14
  4061  0330                     __ptext14:	
  4062 ;; *************** function _ldra_exit *****************
  4063 ;; Defined at:
  4064 ;;		line 144 in file "C:\LDRA_Toolsuite\Compiler_spec\Microchip\xc8\ldra_port.c"
  4065 ;; Parameters:    Size  Location     Type
  4066 ;;		None
  4067 ;; Auto vars:     Size  Location     Type
  4068 ;;		None
  4069 ;; Return value:  Size  Location     Type
  4070 ;;                  1    wreg      void 
  4071 ;; Registers used:
  4072 ;;		wreg
  4073 ;; Tracked objects:
  4074 ;;		On entry : 0/0
  4075 ;;		On exit  : 0/0
  4076 ;;		Unchanged: 0/0
  4077 ;; Data sizes:     COMMON   BANK0   BANK1   BANK2   BANK3   BANK4   BANK5   BANK6   BANK7   BANK8   BANK9  BANK10  BANK1
      +1  BANK12  BANK13  BANK14  BANK15  BANK16  BANK17  BANK18  BANK19  BANK20  BANK21  BANK22  BANK23  BANK24  BANK25
  4078 ;;      Params:         0       0       0       0       0       0       0       0       0       0       0       0       
      +0       0       0       0       0       0       0       0       0       0       0       0       0       0       0
  4079 ;;      Locals:         0       0       0       0       0       0       0       0       0       0       0       0       
      +0       0       0       0       0       0       0       0       0       0       0       0       0       0       0
  4080 ;;      Temps:          0       0       0       0       0       0       0       0       0       0       0       0       
      +0       0       0       0       0       0       0       0       0       0       0       0       0       0       0
  4081 ;;      Totals:         0       0       0       0       0       0       0       0       0       0       0       0       
      +0       0       0       0       0       0       0       0       0       0       0       0       0       0       0
  4082 ;;Total ram usage:        0 bytes
  4083 ;; Hardware stack levels used:    1
  4084 ;; This function calls:
  4085 ;;		Nothing
  4086 ;; This function is called by:
  4087 ;;		_ldra_port_close
  4088 ;; This function uses a non-reentrant model
  4089 ;;
  4090                           
  4091                           
  4092                           ;psect for function _ldra_exit
  4093  0330                     _ldra_exit:	
  4094                           
  4095                           ;C:\LDRA_Toolsuite\Compiler_spec\Microchip\xc8\ldra_port.c: 155:   __nop();
  4096                           
  4097                           ;incstack = 0
  4098                           ; Regs used in _ldra_exit: [wreg]
  4099  0330  0000               	nop
  4100                           
  4101                           ;C:\LDRA_Toolsuite\Compiler_spec\Microchip\xc8\ldra_port.c: 156:   __nop();
  4102  0331  0000               	nop
  4103                           
  4104                           ;C:\LDRA_Toolsuite\Compiler_spec\Microchip\xc8\ldra_port.c: 157:   __nop();
  4105  0332  0000               	nop
  4106                           
  4107                           ;C:\LDRA_Toolsuite\Compiler_spec\Microchip\xc8\ldra_port.c: 158:   __nop();
  4108  0333  0000               	nop
  4109                           
  4110                           ;C:\LDRA_Toolsuite\Compiler_spec\Microchip\xc8\ldra_port.c: 161:   Configured = 1;
  4111  0334  3001               	movlw	1
  4112  0335  0020               	movlb	0	; select bank0
  4113  0336  00CB               	movwf	_Configured
  4114  0337  3000               	movlw	0
  4115  0338  00CC               	movwf	_Configured+1
  4116  0339  0008               	return
  4117  033A                     __end_of_ldra_exit:	
  4118  007E                     btemp	set	126	;btemp
  4119  007E                     wtemp0	set	126


Data Sizes:
    Strings     533
    Constant    20
    Data        0
    BSS         70
    Persistent  34
    Stack       0

Auto Spaces:
    Space          Size  Autos    Used
    COMMON           14     14      14
    BANK0            80     39      47
    BANK1            80     66      66
    BANK2            80      0      64
    BANK3            80      0       0
    BANK4            80      0       0
    BANK5            80      0       0
    BANK6            80      0       0
    BANK7            80      0       0
    BANK8            80      0       0
    BANK9            80      0       0
    BANK10           80      0       0
    BANK11           80      0       0
    BANK12           80      0       0
    BANK13           80      0       0
    BANK14           80      0       0
    BANK15           80      0       0
    BANK16           80      0       0
    BANK17           80      0       0
    BANK18           80      0       0
    BANK19           80      0       0
    BANK20           80      0       0
    BANK21           80      0       0
    BANK22           15      0       0
    BANK23            0      0       0
    BANK24            0      0       0
    BANK25            0      0       0

Pointer List with Targets:

    sp__ldra_sprintf4	PTR unsigned char  size(1) Largest target is 0

    sp__ldra_sprintf3	PTR unsigned char  size(1) Largest target is 0

    sp__ldra_sprintf2	PTR unsigned char  size(1) Largest target is 0

    sp__ldra_sprintf1	PTR unsigned char  size(1) Largest target is 64
		 -> main@msg(BANK1[64]), 

    ldra_sprintf1@format	PTR const unsigned char  size(2) Largest target is 52
		 -> STR_16(CODE[7]), STR_13(CODE[40]), STR_12(CODE[42]), STR_11(CODE[52]), 
		 -> STR_10(CODE[44]), STR_9(CODE[39]), STR_8(CODE[38]), STR_7(CODE[37]), 
		 -> STR_6(CODE[36]), STR_5(CODE[38]), STR_4(CODE[37]), STR_1(CODE[17]), 

    ldra_sprintf1@str	PTR unsigned char  size(1) Largest target is 64
		 -> main@msg(BANK1[64]), 

    ldra_sprintf@str	PTR unsigned char  size(1) Largest target is 64
		 -> main@msg(BANK1[64]), 

    ldra_sprintf@format	PTR const unsigned char  size(2) Largest target is 52
		 -> STR_16(CODE[7]), STR_13(CODE[40]), STR_12(CODE[42]), STR_11(CODE[52]), 
		 -> STR_10(CODE[44]), STR_9(CODE[39]), STR_8(CODE[38]), STR_7(CODE[37]), 
		 -> STR_6(CODE[36]), STR_5(CODE[38]), STR_4(CODE[37]), STR_1(CODE[17]), 

    ldra_int_to_dec@str	PTR unsigned char  size(1) Largest target is 64
		 -> main@msg(BANK1[64]), 

    ldra_port_write@pMsg	PTR const unsigned char  size(2) Largest target is 64
		 -> STR_17(CODE[45]), STR_15(CODE[23]), STR_14(CODE[22]), STR_3(CODE[17]), 
		 -> STR_2(CODE[16]), main@msg(BANK1[64]), CPU(CODE[20]), 


Critical Paths under _main in COMMON

    _main->_ldra_sprintf1
    _ldra_sprintf->_ldra_int_to_dec
    _ldra_int_to_dec->___awdiv
    _ldra_port_write->_ldra_upload
    _ldra_port_open->_ldra_port_init
    _ldra_port_close->_ldra_upload

Critical Paths under _main in BANK0

    _main->_ldra_sprintf1
    _ldra_sprintf1->_ldra_sprintf
    _ldra_sprintf->_ldra_int_to_dec

Critical Paths under _main in BANK1

    None.

Critical Paths under _main in BANK2

    None.

Critical Paths under _main in BANK3

    None.

Critical Paths under _main in BANK4

    None.

Critical Paths under _main in BANK5

    None.

Critical Paths under _main in BANK6

    None.

Critical Paths under _main in BANK7

    None.

Critical Paths under _main in BANK8

    None.

Critical Paths under _main in BANK9

    None.

Critical Paths under _main in BANK10

    None.

Critical Paths under _main in BANK11

    None.

Critical Paths under _main in BANK12

    None.

Critical Paths under _main in BANK13

    None.

Critical Paths under _main in BANK14

    None.

Critical Paths under _main in BANK15

    None.

Critical Paths under _main in BANK16

    None.

Critical Paths under _main in BANK17

    None.

Critical Paths under _main in BANK18

    None.

Critical Paths under _main in BANK19

    None.

Critical Paths under _main in BANK20

    None.

Critical Paths under _main in BANK21

    None.

Critical Paths under _main in BANK22

    None.

Critical Paths under _main in BANK23

    None.

Critical Paths under _main in BANK24

    None.

Critical Paths under _main in BANK25

    None.

Call Graph Tables:

 ---------------------------------------------------------------------------------
 (Depth) Function   	        Calls       Base Space   Used Autos Params    Refs
 ---------------------------------------------------------------------------------
 (0) _main                                                67    67      0    9930
                                             38 BANK0      1     1      0
                                              0 BANK1     66    66      0
                    _ldra_port_close
                     _ldra_port_open
                    _ldra_port_write
                      _ldra_sprintf1
 ---------------------------------------------------------------------------------
 (1) _ldra_sprintf1                                        5     1      4    7625
                                             13 COMMON     1     1      0
                                             34 BANK0      4     0      4
                       _ldra_sprintf
 ---------------------------------------------------------------------------------
 (2) _ldra_sprintf                                        31    19     12    5267
                                              3 BANK0     31    19     12
                            ___awdiv
                             ___bmul
                             ___wmul
                    _ldra_int_to_dec
 ---------------------------------------------------------------------------------
 (3) _ldra_int_to_dec                                      7     5      2    1362
                                              9 COMMON     4     2      2
                                              0 BANK0      3     3      0
                            ___awdiv
                            ___awmod
                             ___bmul (ARG)
 ---------------------------------------------------------------------------------
 (4) ___awmod                                              7     3      4     448
                                              0 COMMON     7     3      4
 ---------------------------------------------------------------------------------
 (4) ___awdiv                                              9     5      4     604
                                              0 COMMON     9     5      4
 ---------------------------------------------------------------------------------
 (3) ___wmul                                               6     2      4     244
                                              0 COMMON     6     2      4
 ---------------------------------------------------------------------------------
 (3) ___bmul                                               4     3      1     144
                                              0 COMMON     4     3      1
 ---------------------------------------------------------------------------------
 (1) _ldra_port_write                                      7     5      2    1503
                                              4 COMMON     7     5      2
                        _ldra_upload
 ---------------------------------------------------------------------------------
 (1) _ldra_port_open                                       0     0      0     136
                    _ldra_port_close
                     _ldra_port_init
            _ldra_port_is_configured
 ---------------------------------------------------------------------------------
 (2) _ldra_port_is_configured                              2     0      2       0
                                              0 COMMON     2     0      2
 ---------------------------------------------------------------------------------
 (2) _ldra_port_init                                       4     4      0      68
                                              0 COMMON     4     4      0
 ---------------------------------------------------------------------------------
 (2) _ldra_port_close                                      0     0      0      68
                          _ldra_exit
                        _ldra_upload
 ---------------------------------------------------------------------------------
 (2) _ldra_upload                                          4     4      0      68
                                              0 COMMON     4     4      0
 ---------------------------------------------------------------------------------
 (3) _ldra_exit                                            0     0      0       0
 ---------------------------------------------------------------------------------
 Estimated maximum stack depth 4
 ---------------------------------------------------------------------------------

 Call Graph Graphs:

 _main (ROOT)
   _ldra_port_close
     _ldra_exit
     _ldra_upload
   _ldra_port_open
     _ldra_port_close
       _ldra_exit
       _ldra_upload
     _ldra_port_init
     _ldra_port_is_configured
   _ldra_port_write
     _ldra_upload
   _ldra_sprintf1
     _ldra_sprintf
       ___awdiv
       ___bmul
       ___wmul
       _ldra_int_to_dec
         ___awdiv
         ___awmod
         ___bmul (ARG)

 Address spaces:
Name               Size   Autos  Total    Cost      Usage
BIGRAM             7F0      0       0       0        0.0%
EEDATA             100      0       0       0        0.0%
NULL                 0      0       0       0        0.0%
CODE                 0      0       0       0        0.0%
BITCOMMON            E      0       0       1        0.0%
BITSFR0              0      0       0       1        0.0%
SFR0                 0      0       0       1        0.0%
COMMON               E      E       E       2      100.0%
BITSFR1              0      0       0       2        0.0%
SFR1                 0      0       0       2        0.0%
BITSFR2              0      0       0       3        0.0%
SFR2                 0      0       0       3        0.0%
STACK                0      0       0       3        0.0%
BITBANK0            50      0       0       4        0.0%
BITSFR3              0      0       0       4        0.0%
SFR3                 0      0       0       4        0.0%
BANK0               50     27      2F       5       58.8%
BITSFR4              0      0       0       5        0.0%
SFR4                 0      0       0       5        0.0%
BITBANK1            50      0       0       6        0.0%
BITSFR5              0      0       0       6        0.0%
SFR5                 0      0       0       6        0.0%
BANK1               50     42      42       7       82.5%
BITSFR6              0      0       0       7        0.0%
SFR6                 0      0       0       7        0.0%
BITBANK2            50      0       0       8        0.0%
BITSFR7              0      0       0       8        0.0%
SFR7                 0      0       0       8        0.0%
BANK2               50      0      40       9       80.0%
BITSFR8              0      0       0       9        0.0%
SFR8                 0      0       0       9        0.0%
BITBANK3            50      0       0      10        0.0%
BITSFR9              0      0       0      10        0.0%
SFR9                 0      0       0      10        0.0%
BANK3               50      0       0      11        0.0%
BITSFR10             0      0       0      11        0.0%
SFR10                0      0       0      11        0.0%
BITBANK4            50      0       0      12        0.0%
BITSFR11             0      0       0      12        0.0%
SFR11                0      0       0      12        0.0%
BANK4               50      0       0      13        0.0%
BITSFR12             0      0       0      13        0.0%
SFR12                0      0       0      13        0.0%
BITSFR13             0      0       0      14        0.0%
SFR13                0      0       0      14        0.0%
ABS                  0      0      BF      14        0.0%
BITBANK5            50      0       0      15        0.0%
BITSFR14             0      0       0      15        0.0%
SFR14                0      0       0      15        0.0%
BANK5               50      0       0      16        0.0%
BITSFR15             0      0       0      16        0.0%
SFR15                0      0       0      16        0.0%
BITBANK6            50      0       0      17        0.0%
BITSFR16             0      0       0      17        0.0%
SFR16                0      0       0      17        0.0%
BANK6               50      0       0      18        0.0%
BITSFR17             0      0       0      18        0.0%
SFR17                0      0       0      18        0.0%
BITBANK7            50      0       0      19        0.0%
BITSFR18             0      0       0      19        0.0%
SFR18                0      0       0      19        0.0%
BANK7               50      0       0      20        0.0%
BITSFR19             0      0       0      20        0.0%
SFR19                0      0       0      20        0.0%
BITBANK8            50      0       0      21        0.0%
BITSFR20             0      0       0      21        0.0%
SFR20                0      0       0      21        0.0%
BANK8               50      0       0      22        0.0%
BITSFR21             0      0       0      22        0.0%
SFR21                0      0       0      22        0.0%
BITBANK9            50      0       0      23        0.0%
BITSFR22             0      0       0      23        0.0%
SFR22                0      0       0      23        0.0%
BANK9               50      0       0      24        0.0%
BITSFR23             0      0       0      24        0.0%
SFR23                0      0       0      24        0.0%
BITBANK10           50      0       0      25        0.0%
BITSFR24             0      0       0      25        0.0%
SFR24                0      0       0      25        0.0%
BANK10              50      0       0      26        0.0%
BITSFR25             0      0       0      26        0.0%
SFR25                0      0       0      26        0.0%
BITBANK11           50      0       0      27        0.0%
BITSFR26             0      0       0      27        0.0%
SFR26                0      0       0      27        0.0%
BITSFR27             0      0       0      28        0.0%
SFR27                0      0       0      28        0.0%
DATA                 0      0      BF      28        0.0%
BANK11              50      0       0      29        0.0%
BITSFR28             0      0       0      29        0.0%
SFR28                0      0       0      29        0.0%
BITBANK12           50      0       0      30        0.0%
BITSFR29             0      0       0      30        0.0%
SFR29                0      0       0      30        0.0%
BANK12              50      0       0      31        0.0%
BITSFR30             0      0       0      31        0.0%
SFR30                0      0       0      31        0.0%
BITBANK13           50      0       0      32        0.0%
BITSFR31             0      0       0      32        0.0%
SFR31                0      0       0      32        0.0%
BANK13              50      0       0      33        0.0%
BITBANK14           50      0       0      34        0.0%
BANK14              50      0       0      35        0.0%
BITBANK15           50      0       0      36        0.0%
BANK15              50      0       0      37        0.0%
BITBANK16           50      0       0      38        0.0%
BANK16              50      0       0      39        0.0%
BITBANK17           50      0       0      40        0.0%
BANK17              50      0       0      41        0.0%
BITBANK18           50      0       0      42        0.0%
BANK18              50      0       0      43        0.0%
BITBANK19           50      0       0      44        0.0%
BANK19              50      0       0      45        0.0%
BITBANK20           50      0       0      46        0.0%
BANK20              50      0       0      47        0.0%
BITBANK21           50      0       0      48        0.0%
BANK21              50      0       0      49        0.0%
BITBANK22           50      0       0      50        0.0%
BANK22               F      0       0      51        0.0%
BITBANK23           50      0       0      52        0.0%
BANK23               0      0       0      53        0.0%
BITBANK24           50      0       0      54        0.0%
BANK24               0      0       0      55        0.0%
BITBANK25           20      0       0      56        0.0%
BANK25               0      0       0      57        0.0%


Microchip Technology PIC Macro Assembler V2.05 build -831301201 
Symbol Table                                                                                   Thu Mar 25 12:19:38 2021

                ?_ldra_port_close 0070                  ?_ldra_port_write 0074                    ___bmul@product 0072  
                    ___awdiv@sign 0076               ___wmul@multiplicand 0072                               l269 0383  
                             _CPU 09ED                               u605 0512                               u730 048E  
                             u740 048F                               u725 03D2                               u805 0389  
                             u565 04F6                               u585 0500                               u665 0417  
                             u595 050A                               u845 03F5                               u685 0426  
                             u925 06EF                               u695 042D                               u935 0710  
                             u945 0722                               u795 0384                               u975 075D  
                    ___awmod@sign 0076                               wreg 0009                              l1113 04E0  
                            l1131 04FF                              l1141 051A                              l1213 049E  
                            l1119 04EB                              l1303 06E8                              l1225 037D  
                            l1145 0522                              l1137 0511                              l1129 04F3  
                            l1161 040E                              l1243 0359                              l1171 0420  
                            l1315 0718                              l1323 0749                              l1157 0407  
                            l1333 077F                              l1317 073A                              l1239 0353  
                            l1183 043D                              l1175 042C                              l1351 07C2  
                            l1257 03DD                              l1169 0414                              l1195 03BA  
                            l1179 0435                              l1373 0476                              l1357 07D5  
                            l1375 0446                              l1279 067D                              l1359 07DC  
                            l1471 065F                              l1385 0371                              l1377 047B  
                            l1469 062C                              STR_1 0A01                              STR_2 0A12  
                            STR_3 09C6                              STR_4 0977                              STR_5 092C  
                            STR_6 099C                              STR_7 0952                              STR_8 0906  
                            STR_9 08DF                              u1005 0471                              u1045 0638  
                            _main 0527                              fsr0h 0005                              fsr1h 0007  
                            indf0 0000                              fsr0l 0004                              indf1 0001  
                            fsr1l 0006                              btemp 007E                              start 0002  
                    ?_ldra_upload 0070                 ___bmul@multiplier 0073                ldra_sprintf@digits 003F  
             ldra_sprintf1@format 0042                ldra_sprintf@format 0023                             ?_main 0070  
                 __end_of___awdiv 0527                             STR_10 0861                             STR_11 0800  
                           STR_12 088D                             STR_13 08B7                             STR_14 09D7  
                           STR_15 09C0                             STR_16 0A22                             STR_17 0834  
                 __end_of___awmod 0442                   ___awdiv@divisor 0070                   ___awdiv@counter 0075  
          __size_of_ldra_sprintf1 001E                        _Configured 004B                             status 0003  
                           wtemp0 007E                     ?_ldra_sprintf 0023                   __initialization 07E1  
                    __end_of_main 0663                            ??_main 0046                  ___awdiv@dividend 0072  
         __size_of_ldra_port_init 0025           __size_of_ldra_port_open 0019                    ??_ldra_sprintf 002F  
                   _ldra_sprintf1 0396                            ___bmul 0351                            ___wmul 037B  
                       ??___awdiv 0074                         ??___awmod 0074                  ___awdiv@quotient 0077  
                 ___awmod@divisor 0070                   ___awmod@counter 0075           __end_of__initialization 07FD  
                  ?_ldra_sprintf1 0042                  ldra_sprintf1@str 007D               ___bmul@multiplicand 0070  
                  __pcstackCOMMON 0070  __size_of_ldra_port_is_configured 0006              __size_of_ldra_upload 0024  
        __size_of_ldra_int_to_dec 004E                        __pbssBANK0 0047                        __pbssBANK2 0120  
                  ldra_sprintf@d1 0027                    ldra_sprintf@d2 0029                    ldra_sprintf@d3 002B  
                  ldra_sprintf@d4 002D                __size_of_ldra_exit 000A                        __pmaintext 0527  
                         ?___bmul 0070                           ?___wmul 0070          __size_of_ldra_port_close 000B  
        __size_of_ldra_port_write 0046              __end_of_ldra_sprintf 07E1                    _ldra_port_init 03D8  
                  _ldra_port_open 0362                   ??_ldra_sprintf1 007D                   __size_of___bmul 0011  
                         ___awdiv 04D6                           ___awmod 03FD                   __size_of___wmul 001B  
               __end_of_ldra_exit 033A                           __ptext1 0396                           __ptext2 0663  
                         __ptext3 0488                           __ptext4 03FD                           __ptext5 04D6  
                         __ptext6 037B                           __ptext7 0351                           __ptext8 0442  
                         __ptext9 0362                  ___awmod@dividend 0072            __end_of_ldra_port_init 03FD  
          __end_of_ldra_port_open 037B                 ??_ldra_int_to_dec 007B                           main@msg 00A0  
                         clrloop0 0346              end_of_initialization 07FD           _ldra_port_is_configured 032A  
             ldra_port_write@pMsg 0074                   ?_ldra_port_init 0070                   ?_ldra_port_open 0070  
               ??_ldra_port_close 0074                 ??_ldra_port_write 0076                ldra_int_to_dec@neg 0020  
              ldra_int_to_dec@val 0079                ldra_int_to_dec@str 0022                 ldra_sprintf@width 003D  
                  __end_of___bmul 0362                    __end_of___wmul 0396             __size_of_ldra_sprintf 017E  
             start_initialization 07E1                       __end_of_CPU 0A01                      _ldra_message 26EF  
       ??_ldra_port_is_configured 0072                     ??_ldra_upload 0070                      _ldra_sprintf 0663  
                        ??___bmul 0071                          ??___wmul 0074                       __pbssBIGRAM 26EF  
                 ldra_sprintf1@d1 0044                   ldra_upload@iter 0072                         ___latbits 0003  
                   __pcstackBANK0 0020                     __pcstackBANK1 00A0                   ldra_sprintf@cnt 0025  
                 ldra_sprintf@max 003B                   ldra_sprintf@str 0041                         __pnvBANK0 004D  
                   ldra_sprintf@d 0033                ldra_port_init@iter 0072                          ?___awdiv 0070  
                        ?___awmod 0070                   _ldra_int_to_dec 0488               __end_of_ldra_upload 03D8  
 __end_of_ldra_port_is_configured 0330                         _ldra_exit 0330                 _ldra_exit_reached 0047  
                  ___wmul@product 0074             __end_of_ldra_sprintf1 03B4                         clear_ram0 0345  
                 _ldra_port_close 033A                 ___wmul@multiplier 0070                  ??_ldra_port_init 0070  
                ??_ldra_port_open 0074                   _ldra_port_write 0442                         main@count 00E0  
                      ?_ldra_exit 0070                       _ldra_fileid 004D                       _ldra_buffer 0120  
         __end_of_ldra_int_to_dec 04D6                       _ldra_upload 03B4                 _iter_ldra_message 0049  
                __size_of___awdiv 0051                  __size_of___awmod 0045                          __ptext10 032A  
                        __ptext11 03D8                          __ptext12 033A                          __ptext13 03B4  
                        __ptext14 0330                     __size_of_main 013C           __end_of_ldra_port_close 0345  
         __end_of_ldra_port_write 0488                       ??_ldra_exit 0070                    __pstringtext10 0952  
                  __pstringtext11 0977                    __pstringtext12 099C                    __pstringtext13 09C0  
                  __pstringtext14 09D7                    __pstringtext15 0A01                    __pstringtext16 0A12  
                  __pstringtext17 0A22                    __pstringtext18 0000                  ?_ldra_int_to_dec 0079  
                   __pstringtext1 09ED                     __pstringtext2 0800                     __pstringtext3 0834  
                   __pstringtext4 0861                     __pstringtext5 088D                     __pstringtext6 08B7  
                   __pstringtext7 08DF                     __pstringtext8 0906                     __pstringtext9 092C  
        ?_ldra_port_is_configured 0070  
